(lp0
F-4.071431176171458
aF-6.011688797658201
aF-3.7001531166722486
aF-4.148716300435908
aF-2.9030060056962936
aF-3.9763361847816387
aF-2.3590543631908343
aF-3.4252474132571864
aF-5.694595030359531
aF-3.592397310553015
aF-4.340306685567343
aF-3.826798213067065
aF-5.363517660611486
aF-4.509687116698501
aF-3.052233038333168
aF-3.6557277164606385
aF-2.6248308637002897
aF-3.967717731840383
aF-2.7713062570490354
aF-3.7647237313368014
aF-2.394063992714801
aF-3.916994977526014
aF-3.7358818017989885
aF-4.482390808738179
aF-4.432530514621416
aF3.360143138892316
aF3.256452316644064
aF4.137562510830307
aF4.030501921548779
aF3.051027787981057
aF4.972615767839246
aF5.230377784232117
aF4.867872968289187
aF6.138753802316819
aF2.8404930874475447
aF6.452250029479684
aF4.583594237571264
aF2.9914762947936175
aF2.456337651148524
aF3.82033370145032
aF4.573771790308345
aF4.143710795047631
aF-3.7885041838094557
aF-3.6593706810582742
aF-3.6842835449501394
aF-3.6671236284506517
aF-4.404484764665311
aF-4.317948413679954
aF-4.682104364598696
aF-4.85251895233612
aF-3.0156619165516116
aF-3.256821048266632
aF-3.073549981100035
aF4.789256878023027
aF3.7062137829240243
aF1.649467817273608
aF3.335949206772831
aF3.4759672514414364
aF4.499781316451548
aF2.5201128717440664
aF3.6098159289846317
aF5.516950605451651
aF2.561212869746911
aF5.333374884646958
aF3.6981872089375107
aF5.766823146849814
aF5.802985161031235
aF1.6564795382135897
aF4.696253184423184
aF4.276409698672792
aF3.2899660396685495
aF5.603368962682971
aF3.081886616762418
aF5.64525169200249
aF3.168161648758687
aF3.284290923625666
aF4.891871488579981
aF5.281924721446084
aF3.552548604976565
aF4.360186358960397
aF4.903705589159171
aF-4.836288619495871
aF-1.968630878873347
aF-5.413708607852078
aF-5.028915149758575
aF-2.2982700854085065
aF-4.272657907913124
aF-4.380739549181009
aF-4.694019299335686
aF-4.414498556746786
aF-2.384006620462851
aF-3.6499743150125368
aF-4.112344973555103
aF-6.121161198870073
aF-3.048634167709805
aF-4.202110113354386
aF-5.089141582099377
aF-2.28752538970292
aF-2.9842971772512876
aF-2.908689473483542
aF-5.472115289170413
aF-3.7904218724237735
aF-3.641731084047619
aF-5.76476356795939
aF-3.3418761471129215
aF-4.824900232584355
aF4.158450774264231
aF2.861508245542339
aF4.238864656609559
aF4.927227527884378
aF3.53405598171277
aF5.872609433590411
aF2.640049351471163
aF3.8077186334005404
aF4.66674254346273
aF-3.5366030336537277
aF-2.856346024414724
aF-4.589350561722743
aF-4.510217028137639
aF-2.6758486733004196
aF-6.022464772059622
aF-3.880561708859813
aF-3.7640352952457885
aF-3.685505197123316
aF-6.436599792400694
aF-2.532436475372867
aF-4.896979478117393
aF-3.6124551230191115
aF-2.368477587658933
aF-4.330907302145566
aF-3.1070446354986947
aF-3.2196047803133396
aF-3.350506676168052
aF-5.249803759438374
aF-2.561115389361866
aF-4.263767239624889
aF-1.9182691186405583
aF-4.19827258321737
aF-3.891022268841355
aF-3.561839321061052
aF-2.974954219011417
aF4.2808751655815644
aF2.996601486206547
aF2.528774006691806
aF1.5982316866072948
aF4.687429440081833
aF3.2834437742647915
aF2.0379776546870616
aF4.946298362289751
aF3.87275661171032
aF4.628187463017751
aF3.466730951710486
aF3.396982102008469
aF3.3084028957074567
aF3.516837458221358
aF6.0177427338138205
aF3.3168079141655986
aF3.670562053334383
aF3.8293053791031473
aF5.705986766664559
aF3.3975701161323006
aF3.7188180256279453
aF2.976265541304052
aF2.974101507832079
aF6.26576226851671
aF3.913821937995819
aF2.801977713175156
aF3.7647923967652854
aF4.093238652028201
aF2.440549970060966
aF2.2711986675268596
aF5.436377938575553
aF4.995174204116622
aF5.503643869503756
aF3.764284691483928
aF3.703240532774353
aF5.274773359466175
aF3.7521159483379107
aF5.216813248747883
aF3.813299041667045
aF4.164355460507018
aF2.8933751277162383
aF2.597988968830303
aF4.489041402119688
aF4.158671464471
aF4.046481770133764
aF2.608759563270429
aF4.925556280421107
aF3.069687549637584
aF3.921398278513785
aF2.615407465980981
aF3.407642122545462
aF3.8386641867206053
aF5.032041724231275
aF5.123154239323333
aF4.192188060780157
aF3.625355605233904
aF5.14913507637081
aF3.623605024223411
aF5.373893155763684
aF1.885419219947651
aF1.8382183553944094
aF3.388864799356235
aF4.659938225201234
aF4.162104360656198
aF3.637384797757984
aF3.5874605299169278
aF2.2321955358364693
aF3.6787656101360233
aF4.05032382926199
aF4.377367005523403
aF4.134160836762065
aF5.02767136886168
aF5.8028274383534715
aF2.5892966829970687
aF2.0891239064122207
aF3.1075425051364474
aF4.124110923755797
aF3.0961075679195402
aF2.230155119336022
aF5.130318095602916
aF3.117670416502712
aF2.723736588190958
aF3.0171030014558284
aF3.6665018513431575
aF1.2991974420269727
aF1.816717697311665
aF3.883607638420994
aF4.201233634053798
aF2.916115879369855
aF2.1537244271516562
aF3.458350243131566
aF4.658122111729681
aF3.9614583258258524
aF3.659049934515163
aF4.850801416684726
aF4.795134769200923
aF5.867469998551001
aF2.924125841591033
aF4.068415081525569
aF-4.270542555269838
aF5.174573273144764
aF4.211711394527011
aF4.287594008086392
aF5.322388726617223
aF4.11691082807541
aF5.457855278757226
aF-4.128421179251512
aF-3.8909171919803844
aF-5.550055595629429
aF-4.603057966196448
aF-2.6503602319399384
aF-3.796368824011701
aF-4.618496338760507
aF-3.58708030747527
aF-2.0686571940239826
aF-3.466360390405139
aF-4.21782208019512
aF-4.538248683353216
aF-4.363003510989221
aF-4.259099654171837
aF-4.085301311043468
aF-3.4788302854113846
aF-2.4352295595899633
aF-4.69826400620118
aF-3.273266619509687
aF-3.909383803339565
aF5.875494874840763
aF2.9616683620225315
aF6.2263027010693275
aF3.436622186475607
aF3.4551179335055404
aF4.177605467889212
aF3.153078320132347
aF5.0785013215377255
aF4.574767643742746
aF5.669063211661031
aF3.7322079256689644
aF1.5970230172052085
aF2.693795537512927
aF3.346619216899848
aF2.5204215828986736
aF3.5259170309051675
aF3.4373875199651205
aF3.702259623225917
aF4.03410354594114
aF4.327331699321105
aF4.910089218706182
aF4.121361652080911
aF5.345897183792655
aF4.337690705290977
aF3.548866196135171
aF4.439933481567329
aF4.131470851814121
aF4.491665149412888
aF4.7650732986700195
aF2.670331658194172
aF3.1715633884231473
aF3.1012757619060336
aF2.9130173814320566
aF4.7834279827559785
aF3.700282274071804
aF5.14490877629024
aF3.6402586423723866
aF4.640673614380644
aF2.7933633191983622
aF2.9273253026943706
aF4.7059337867156
aF5.7479015984791015
aF3.464945723347716
aF4.272305195378412
aF3.455757447207671
aF4.710767160854548
aF4.8413080955272765
aF3.580906390734869
aF4.706332857406687
aF4.571160629421376
aF4.291245347521352
aF4.852000364234391
aF5.439707754680546
aF4.575603426057631
aF-3.3747073666860246
aF-4.506990653107454
aF-3.2788918543184167
aF-3.8859423163727342
aF5.148571764161495
aF3.5458722570226158
aF4.590419003150766
aF4.366779656067156
aF5.449996054001887
aF3.856401361951817
aF2.922491409109901
aF3.6664059744553184
aF4.7488860018440295
aF4.512007292767391
aF4.355336928268975
aF3.3014730493921367
aF3.4421112854888762
aF5.166399268716448
aF2.96636060139585
aF5.619728699484694
aF3.991145671988929
aF-3.342906486859312
aF-4.768656351745776
aF-4.083757173789677
aF-4.140958763172889
aF-4.329167823163372
aF-3.8337859007483233
aF-3.698146892049596
aF-5.020161910579623
aF-3.663886295352722
aF-4.302908568639765
aF-4.316389564276739
aF-4.38347793756806
aF-4.690646872008233
aF-6.113402033827146
aF-5.421495717694945
aF-5.737323108622735
aF-6.202627090865714
aF-2.099984602211422
aF-3.8620523849914283
aF-4.041071281530104
aF-1.6242825376297816
aF-3.892718797814039
aF-4.283559060407145
aF-3.9752047996908666
aF-3.7662500615485315
aF-2.3751378187698666
aF-5.254749341424993
aF-1.8539526917150777
aF-5.7443970873864085
aF-2.5160081799905205
aF-4.471008214850778
aF-6.388686899419643
aF-2.448164656855049
aF-3.3342780534406176
aF-4.678123809754618
aF-3.5259586467956003
aF-3.1333200516310638
aF-4.444188886086744
aF-3.7936982214397728
aF-2.7537891624642965
aF-5.487107703921771
aF-4.8648754162432315
aF-4.179370248263892
aF-4.511381137965834
aF-5.367049228394329
aF-4.188984883862366
aF-3.804480055333262
aF-5.380324621459945
aF-3.8275855251391286
aF-5.045628171915409
aF-2.960933941922877
aF-3.5623887141563433
aF-3.1553412126118983
aF-3.5775881619258514
aF-3.893171020456663
aF-4.473353613100983
aF-4.081850037797032
aF-4.320308540224972
aF2.9547081293738473
aF3.9941650927964876
aF5.164190926301218
aF5.860351308908491
aF2.8081314437303657
aF3.6324890936828136
aF2.9284260761555503
aF3.1306914592867283
aF3.9755268533983505
aF4.313121269327634
aF4.058902738311791
aF-3.2314777881403995
aF-4.8589420884343
aF-3.1184248873918317
aF-5.278668779897597
aF-2.9052834778605474
aF-4.0424771982340095
aF-4.497637240489624
aF-4.658518820056509
aF-3.223932051942061
aF-3.8733956611736406
aF-2.1440986247645544
aF-2.830617438519517
aF-4.282443690281036
aF-3.999091381296324
aF-2.71848335572795
aF-4.2165591898112496
aF-5.355522775725644
aF-3.5883650815070958
aF-4.3916398199349524
aF-2.4115527698442554
aF-4.320444202466534
aF-5.288370455415022
aF-3.7332430595664166
aF-3.224503859258024
aF-1.6997750328052197
aF-2.720141107671611
aF-4.070470073937011
aF4.901904872448827
aF3.6681539282761384
aF4.281279131674142
aF2.5723289305603805
aF4.446584028482967
aF2.530502174984435
aF4.084684790522357
aF4.337144642543735
aF2.6790749864843866
aF4.241723885587181
aF2.080183328974205
aF4.502685686979308
aF4.233511197503318
aF2.9908940490519624
aF1.8924977810907397
aF5.86183463879519
aF3.2724860239478306
aF5.4529080834070935
aF4.518021025946875
aF3.8887203871251255
aF4.849309159350955
aF4.995835505138036
aF5.480407475934913
aF2.8584799973895536
aF3.51604974319395
aF3.3356278817583878
aF3.7865551234910826
aF3.613033426385009
aF3.8900165550350674
aF4.048327062624562
aF3.9546834175190355
aF4.68929424322837
aF4.100200002262278
aF4.015113022514487
aF5.9295122676667695
aF4.210639197668333
aF3.8304449801547715
aF3.348776613163055
aF3.156604720079851
aF2.9284725818446935
aF3.9612919805865756
aF4.08546028734754
aF5.268494341252255
aF2.7895152677562765
aF3.9669910797598047
aF3.4483400155648796
aF-2.848963364014666
aF-4.628439692795531
aF-4.328608127996659
aF-1.5285208092164035
aF-4.173713258803531
aF-5.021894758726501
aF-5.279488473249939
aF-3.495947931402235
aF-3.1496352552813853
aF-5.62850147139105
aF-3.243391241031647
aF-4.689915850744363
aF-5.626821837635695
aF-2.31445046432143
aF-5.129594855459673
aF-3.4394922722663694
a.