(lp0
F3.3841731733759115
aF2.5644188468195104
aF7.121285223410019
aF2.517989541808054
aF1.9357108155927132
aF3.8690316203943156
aF3.699262754227798
aF3.1031106257126924
aF-5.248795837577974
aF-4.150705382954905
aF-2.48234442288437
aF-4.944881153599879
aF-2.9689042350170256
aF-3.901254716928239
aF-4.958143699042779
aF-2.807628130110479
aF-4.907850077116444
aF-4.321063703967456
aF-4.027597496911567
aF-3.586694287774979
aF-4.7382562001525645
aF-4.4298399242123505
aF-3.870316705345573
aF-1.802259180962186
aF-4.922976071702651
aF-3.21996340144705
aF-5.180555549320038
aF-5.040073258410617
aF-2.5464433406673113
aF-4.222117991548065
aF-3.2962937216007546
aF-3.598372987498214
aF-5.087730651778275
aF-5.778404441459651
aF-4.787702625588966
aF-2.6640591783419536
aF-3.5748131260214007
aF-3.8003969745537436
aF-3.9861698144235787
aF-3.4673580529778287
aF-2.991367587729556
aF-5.042526137050174
aF-6.1360032842277
aF-2.156181204186231
aF-3.441549031383177
aF-4.002725695178208
aF-4.101518720447178
aF-3.020925175968639
aF-3.5525808266645647
aF-6.25943808942352
aF-4.337816941255031
aF-5.630972915502291
aF-2.6296308726588213
aF-2.66215618064631
aF-3.146663562262141
aF-2.800198247978858
aF-6.198993134261052
aF-2.9588601238268075
aF-3.2689886952326086
aF-1.9836900728029208
aF-3.7061215127619893
aF-3.9632712170807896
aF-3.0178233762385744
aF-2.6081966797817353
aF-2.5190410840455497
aF-2.2247423509979565
aF-3.7018139316072265
aF-3.6840630054906067
aF-4.53767981709725
aF-1.7263186416700251
aF-4.664265744774153
aF-4.34995413794435
aF-2.9568682210673414
aF-3.252316224149548
aF-4.521436827034947
aF-4.160521908207086
aF-4.425265806120759
aF-4.4397869512203565
aF-4.734097152009662
aF-2.4301142307182753
aF-2.5539284303013132
aF-3.3571984888234256
aF-4.441931349927162
aF-3.5586166094641345
aF-3.3954515495955295
aF-5.768974570015439
aF-3.5062445620171756
aF-4.229738424287286
aF-3.3529550696773542
aF-2.5999456140279946
aF-4.125250731775326
aF-4.346370570157071
aF-2.4102649276616948
aF-3.991212517229122
aF-4.427915811006592
aF-3.934312134752713
aF-4.007784852488533
aF-4.022148350847849
aF-4.318892542945254
aF-4.772963448433166
aF-4.424635948464305
aF2.6187258401379205
aF3.405680347302151
aF2.370725691745438
aF3.8845607375047355
aF3.4598260221689494
aF3.792375433833886
aF3.804539386733004
aF3.994532572385743
aF4.175094804241605
aF1.9311723699700236
aF2.594157217349535
aF3.981514994883246
aF5.183650642088195
aF2.744914601189137
aF3.1038249116871817
aF3.3226308334546535
aF4.166594091818462
aF2.9202217160802126
aF3.4525509855425858
aF5.510356367582123
aF3.722937571017919
aF2.241357126948269
aF2.3505662342771374
aF3.7423343220797975
aF3.689079842392135
aF3.820282782688169
aF5.318264251328827
aF3.1211971902450286
aF2.881689220677394
aF3.583702296475617
aF-3.209770744134102
aF-3.6626982577509786
aF-5.4927720507599656
aF3.709413583560695
aF4.378975140961603
aF6.334141277597341
aF3.205711339761172
aF3.743658443592689
aF4.132293346541638
aF1.8541982576437248
aF3.398356304491168
aF4.635667126045779
aF3.2800481449617895
aF3.681181721605619
aF3.5980254670122243
aF3.5269769476528956
aF3.502946455862433
aF1.963507790799611
aF5.027521636330862
aF5.910732348823256
aF5.232632061744167
aF4.681162828095428
aF3.4404725553831583
aF3.904991956666574
aF-2.91587813410184
aF-1.227891965408137
aF-3.4124597898525613
aF-2.9693509783911747
aF-3.2570581576203326
aF-5.1517057818122325
aF-3.896234961718288
aF-4.2077680749629565
aF-4.383387740744695
aF-4.228499722295335
aF-5.260576285945037
aF-2.365662398774073
aF-4.836857916695385
aF-3.261013981629657
aF-3.724089205050044
aF-5.975173391784239
aF-3.6041532795602915
aF-4.924277799148615
aF-3.057986733546376
aF-4.702818653805613
aF-4.786915716884269
aF-3.5130557445489474
aF-3.352177567438311
aF-3.0957269945709616
aF-1.65968166525675
aF-5.087003703863583
aF-5.841880276181621
aF-2.7228364958781275
aF-5.111629263850095
aF-3.4574815998730717
aF-3.6602748435249963
aF-3.6543179244082196
aF-3.4398114701318514
aF-3.95087573221858
aF-3.640000868494382
aF-4.3813580124639895
aF-3.9709864914918955
aF-2.917471298578593
aF-3.0004443451877494
aF-2.9741029223756783
aF-5.209457421349143
aF3.0862761080997574
aF4.192053228235329
aF2.8457918058801246
aF3.7925357298831757
aF3.8418548563966377
aF3.2692162665593703
aF4.003302391080481
aF5.982615338583621
aF5.660318836920384
aF4.643842149104797
aF3.004834052955898
aF2.5051519839101655
aF2.963933222204902
aF3.5523122735377903
aF2.9326647414222586
aF3.7901705167825392
aF4.899750733003999
aF-3.1423073711795038
aF-2.1206171597643193
aF-3.7828542747903358
aF-5.037415840403341
aF-5.345059796242192
aF-3.9115855639261516
aF3.8527634737971166
aF5.058842402392612
aF2.865992821351015
aF4.57704625000246
aF6.02460493022415
aF4.124438732618821
aF3.0411066655250076
aF3.574406171749291
aF4.185775135885217
aF5.589831526047927
aF3.9262175375363464
aF3.394425709234893
aF2.73914362704959
aF3.9922047950744086
aF3.0418219734205376
aF5.712647356051116
aF2.0638340109555133
aF3.442820850550999
aF4.158610782028856
aF3.5302538398630006
aF4.4689846782824985
aF4.142822500782404
aF3.9796479287189523
aF4.544747146241308
aF4.819746222340778
aF4.582167781438095
aF4.252714458870779
aF2.628246734906111
aF3.52187599663994
aF3.5785690548071662
aF4.869184310397633
aF2.931171706556934
aF2.54389204602853
aF2.754531253193357
aF3.0481374513364363
aF4.280717304616905
aF5.357435497831083
aF1.2173427252828821
aF4.262873950549211
aF3.0548127888672814
aF3.3798642294346766
aF5.420332655997145
aF4.394048290129248
aF5.710176646112604
aF3.9607416075575825
aF4.076969529151689
aF3.747539571827285
aF4.792493136581152
aF4.770589273692137
aF3.6777137036013725
aF4.6273911341171035
aF4.395037552081229
aF3.0371917847849326
aF3.7529053452912953
aF4.492982547053762
aF2.6857069051267644
aF4.627787333731831
aF2.878075512009034
aF4.546261249692263
aF3.497290506916073
aF5.957666277740537
aF3.9625124106855876
aF4.210926694244671
aF4.566344421737759
aF4.062620894714232
aF3.865793130855146
aF2.7251502991125682
aF2.368000212117753
aF5.618097366291439
aF2.8651999725534187
aF4.560900273079491
aF3.560812661253033
aF3.8581369675612214
aF4.543806883089779
aF3.9607002337040664
aF4.199229345654929
aF-4.408382403571714
aF-6.203042612748693
aF-4.628313131953342
aF-2.997757960201503
aF-3.202600565905232
aF-3.317481844466333
aF-4.381002471357551
aF-6.038505594586185
aF-3.8764517996301007
aF-3.6441348078439977
aF-5.36185471509595
aF-2.108750111260594
aF-3.2774022214304397
aF-1.653507662965625
aF-4.23548104524282
aF-3.507575877196801
aF-4.068706732897462
aF-4.329977947939617
aF-5.3220150115310885
aF-1.8657736487416576
aF-4.939064638691981
aF-2.3438613250089273
aF-4.21946160756144
aF-3.467566964970665
aF-5.176183526083774
aF-3.814407559397897
aF-5.371154569286764
aF-4.944151518389797
aF-3.613704868934632
aF-3.6443741657312705
aF-4.262553517303166
aF-4.578625432621342
aF-4.285076234905199
aF4.07764846084159
aF4.586174165490794
aF-4.783018379543168
aF-3.8429226861641226
aF-5.146702787298253
aF-5.049358692875106
aF-2.382804339231969
aF-6.986986436584287
aF-6.198048533322272
aF3.41760310092324
aF2.1879286090195196
aF2.928036502589522
aF6.557047440324979
aF2.3633912748344788
aF3.1176767186401895
aF4.22026346183856
aF3.984969209175164
aF3.180872598195773
aF2.536190408661242
aF2.177044059768882
aF2.4011526450687706
aF2.344083584923558
aF4.151632741268535
aF2.9779221536050526
aF3.371120346234958
aF4.144660617492641
aF4.167412615888877
aF4.5946519729561075
aF4.9959489764466305
aF3.3164444396630444
aF5.6509192424833
aF5.6936759682721885
aF-4.200971773018118
aF-5.384187953419534
aF-4.138551573366181
aF-4.1955917582005355
aF-3.763724594493564
aF-4.320835907555148
aF-5.064744811982933
aF-4.0740161750159904
aF-2.5825824419705254
aF-3.9479065477933677
aF-2.966369428302386
aF-4.152985755553236
aF-2.061495554878037
aF-2.666158341083507
aF-4.185383253160437
aF-5.677485285072044
aF-3.8475018762678186
aF-1.8084433144521
aF-5.117022354530769
aF-4.526941828034418
aF-3.854569228977642
aF-4.3080664477585175
aF-3.969994407512587
aF-1.6210298854026304
aF-3.98917479121411
aF-3.486246759438064
aF-3.005441069418482
aF-3.6268231687924875
aF-4.589978077360588
aF-4.385645772080729
aF-5.636334414309049
aF-5.298794013345674
aF-3.833326300422678
aF-2.457969360722389
aF-3.3647685313802542
aF-4.701320666814982
aF3.129512252937768
aF3.8171807649553
aF4.261671465194518
aF-4.696282378090619
aF-4.698844277311064
aF-5.2229593389610685
aF-3.765078310316004
aF-4.447831560105198
aF4.035036830920763
aF6.043928292890486
aF4.005747880489353
aF3.1913361864038494
aF3.484388591516776
aF4.378949203092641
aF3.3151783936829387
aF-4.316385811558087
aF-6.132629419740893
aF-4.7508785569434
aF-5.086179594508287
aF-4.428071989814458
aF-1.915604296149941
aF-5.142969036169437
aF-3.91041988030447
aF-5.094536822060757
aF-3.150555838168045
aF3.319166459319613
aF4.964201436984817
aF4.513797340392103
aF4.761080794073722
aF-5.368081978470241
aF-3.1910968731465514
aF-2.6416728566291376
aF-2.7972859052553747
aF-3.6959499221150027
aF-4.9549678896774
aF-5.769796475602539
aF-4.531081300529777
aF-3.8890726870683117
aF-3.163585325671332
aF-4.807734745302334
aF-4.118842258660046
aF-4.615456123869043
aF-3.509614781067263
aF2.788898692041902
aF1.6573001749874097
aF2.7270930305875534
aF3.088952431444463
aF4.113233499803401
aF2.475451087890345
aF4.706378944926101
aF2.6733473944919917
aF2.157255045073602
aF3.830317526637942
aF5.768274196124599
aF4.076280122430296
aF3.651165301306557
aF4.255419962923782
aF4.443038070671234
aF5.352402922481848
aF5.057821943263464
aF4.442490871459789
aF1.2352610412807183
aF4.031517030123223
aF5.349431285221257
aF4.387270968650081
aF4.3826548529467315
aF4.125410874983294
aF2.0803878169814665
aF4.647170516660262
aF4.236766331247958
aF4.186889433039352
aF-2.4948611605843776
aF3.402585722166096
aF2.8496197319661736
aF3.9165289263603547
aF3.7171571435498416
aF5.577392175405874
aF4.522442881071065
aF4.432515696652942
aF3.3786946171385948
aF4.4727777976039675
aF2.22199620847959
aF2.398619049896687
aF5.51873229677207
aF2.395470045679307
aF3.525103233238113
aF6.392782228069091
aF4.826984974598226
aF3.7061437713737573
aF3.567131511279421
aF4.304216451184622
aF5.366085287052319
aF2.6411731379951675
aF5.414355279923409
aF3.249699999164362
aF3.858324793600838
aF6.426440668619531
aF4.705491148629704
aF2.548146610433708
aF3.174721962097996
aF4.887030254967209
aF5.321292530770171
aF5.241148267635387
aF2.641477281799193
a.