(lp0
F-5.445839053501024
aF-3.3349709635953273
aF-2.8638600104593674
aF4.452353594196818
aF3.3946345971763425
aF4.614599022504492
aF-4.18471033736522
aF-3.2354750797697336
aF-4.319405046505034
aF-3.756614603700355
aF-4.6372720929752385
aF-3.7302389141449335
aF-4.174602232701452
aF-3.3668449486653325
aF-4.233983932971981
aF-5.772322771040196
aF-3.915331255223762
aF-3.6393998431759798
aF-4.251942265562941
aF-5.121826457392959
aF-4.305049865409416
aF-3.3300192909863044
aF-2.610767555928134
aF-3.002840760524025
aF-3.8725931174551897
aF-4.258321114157166
aF-2.93905737227069
aF-3.4454435889469117
aF-3.157695657616628
aF-3.72510783444258
aF-4.375791677266389
aF-4.2033508525757926
aF-3.76212129618831
aF-4.192474692076738
aF-3.766661472174764
aF-1.973040562127038
aF-5.006432613279821
aF-4.366787599854853
aF-2.8992978588402814
aF-2.907607800783686
aF-3.7345988009219577
aF-2.908256424021526
aF-4.497333996052622
aF-3.547519539802805
aF-3.429078573850762
aF-4.37251947790671
aF-5.384138516556337
aF3.463652087534426
aF2.8805596700473926
aF7.161951060276099
aF4.319139360657461
aF4.009596900962945
aF3.612524834054803
aF4.2993062015871715
aF3.1292789441590685
aF4.1496559531240305
aF5.293297814353696
aF3.3685526809622655
aF3.796560747365046
aF-2.7424637826015177
aF6.033392092679508
aF4.145373822551019
aF4.37254216398237
aF4.7188302689299135
aF3.180399150485166
aF3.3396419321093775
aF2.6003768826767324
aF4.5016491854513205
aF2.542396885596518
aF3.6053193482520784
aF4.1317688049919
aF3.6370058168361616
aF6.057412832852974
aF2.214305331029732
aF3.6670890249926926
aF3.0352509366719596
aF3.8337828116981005
aF5.411544803497562
aF5.419825203018306
aF2.9734313730497597
aF3.659696546720858
aF3.1506933610587002
aF3.013702737460715
aF4.539084979820743
aF5.260821735857287
aF5.321391872066215
aF2.685055889508841
aF4.135250188303811
aF3.8431678896569568
aF-4.336763796497992
aF-3.631663786405448
aF-3.8686796018103515
aF-5.272419497591472
aF-5.0125011342710195
aF4.726263169542952
aF2.9249049622532883
aF2.1259899223215424
aF2.076243629289369
aF3.418126851273741
aF4.107073745937481
aF4.744740346408779
aF3.2947919434551602
aF5.546826901131203
aF3.5515774392595247
aF4.435384392842096
aF3.5015820379002767
aF4.4863179688152055
aF2.583847837870721
aF4.298453672105339
aF3.8233197638310545
aF5.241729448954768
aF5.476514556339816
aF4.35613601739585
aF-3.215769930267565
aF-6.43329549425755
aF-3.944431855975863
aF-3.3696189593332626
aF5.015708141098754
aF5.112442708958457
aF5.947451746384759
aF4.833980972035294
aF3.387734823449759
aF2.6479783837130557
aF3.3091837175813463
aF5.035262495227916
aF3.4004148261694302
aF3.759605277892701
aF3.332721764297977
aF3.742647500109312
aF2.611326470170041
aF4.424961419848414
aF3.261963667923421
aF4.904114487441155
aF5.6315468109380244
aF5.355896767672037
aF4.648879887698806
aF5.648820694012467
aF4.614403409047675
aF2.434206951024805
aF3.6046080908407725
aF-5.019868742181733
aF-3.9514573899184113
aF-4.226279575690484
aF-5.737655915487416
aF-4.5002259580385875
aF-4.782428277504665
aF-4.765744492909336
aF-3.455264558353956
aF-4.038430792147005
aF-4.644105704204795
aF-4.462936604589922
aF-3.1545856262294554
aF-3.78004770316448
aF-3.3763795791867652
aF-3.883966461695929
aF-3.2251280864173912
aF-3.3787462868752476
aF-4.157548263493036
aF-3.4012023875691657
aF-3.9713076554921276
aF-4.136269708106608
aF-4.455825571765627
aF-4.31638386367187
aF-4.0344808201977145
aF-5.44743797408562
aF-3.992696793330862
aF-2.8053297443728895
aF-3.78575617451724
aF-3.137482172852473
aF-3.7973033395247717
aF-3.2684244304670953
aF-2.3432089173140227
aF-3.8375055683038926
aF-1.9542503449801716
aF-4.044835579794434
aF-3.5079232557879285
aF-3.5803050002311543
aF-4.052113216996198
aF-5.098883591058127
aF-4.484414985304145
aF-3.0823469722084926
aF-3.517123327922934
aF-4.874470448785826
aF-2.863711228704582
aF3.6695699531721404
aF3.338292785031055
aF3.481433533770951
aF3.430356511912793
aF3.6619490713234613
aF3.494797420501884
aF-3.936741844384099
aF-3.4288870947503014
aF-2.3570609078610296
aF-5.088409109722621
aF-3.0557939321737133
aF-3.2818933357504174
aF-4.457134303506854
aF-5.0991635333012715
aF-2.418553114446295
aF-5.403563446339721
aF-5.635881415512269
aF-4.318794270851868
aF-4.479792949973988
aF-2.6321157960077466
aF-3.140922374610464
aF-4.3429041129688395
aF-3.943176322774035
aF-3.8618747685860013
aF-2.4802593300611138
aF-4.8520077079077755
aF-3.6038350098589653
aF-3.8066980607098784
aF-4.699402824371573
aF-5.510327902791271
aF-3.851635659412634
aF-4.282917202111026
aF-2.927671484743244
aF-4.899215075080429
aF-5.218246593552209
aF-5.368783000305532
aF-4.255918556523315
aF-4.593560119845963
aF-2.7334446214047565
aF-3.8240513944860677
aF-3.8706424047451238
aF-2.4984770132345338
aF-4.453047580040091
aF-4.747399901359449
aF-3.7612472536451254
aF-3.0933007263547716
aF-6.034645784766793
aF-3.7317022888154003
aF-2.5359340464821445
aF-3.6443257440243184
aF-4.765214918439968
aF-3.5101321509807177
aF-3.530456471770794
aF2.3202587229454426
aF4.414927949444556
aF2.651823139617913
aF3.272504167095228
aF2.719749750814307
aF5.2275603322478865
aF4.938976830379105
aF4.13743141064486
aF3.931879597358222
aF5.01783694637165
aF2.697148050617156
aF1.6056824761992718
aF4.1586758736881695
aF4.0857263399478265
aF2.1132000432429883
aF3.91692702458574
aF2.956967414889893
aF-3.6213353035271862
aF-4.11841986290741
aF-4.255390608119771
aF-3.488319143026907
aF-3.170257751616356
aF-3.4616318205275474
aF-4.114696354143032
aF-4.06541359760444
aF-3.1311771733862948
aF-4.46270787621974
aF-3.48647277978238
aF-2.722035153325133
aF-3.873620878624411
aF-4.321846355695466
aF-4.79411784777262
aF-2.661637728883766
aF-4.414948227343396
aF-5.3413167499237835
aF-3.281687083777318
aF-5.15107484443095
aF-4.535131782593384
aF-4.307089771269822
aF-4.724030697495983
aF-4.150421453088711
aF-3.202622094184479
aF-2.6803907522753057
aF-5.492568600985507
aF-3.7255020105945578
aF-3.8646674993567705
aF-3.2768092936401674
aF-4.213060569187129
aF-7.285320133976198
aF-3.999118880816465
aF-3.531885893223081
aF-2.935262724051533
aF-3.92733333737344
aF-3.74418139933999
aF-5.264640801669037
aF-3.9887594618656013
aF-4.302079054496702
aF-3.2658729869362397
aF-3.9736948256239377
aF-2.9752885682140935
aF-3.250695231230617
aF-5.37668358513919
aF-3.944320374633695
aF-2.598820519177978
aF-3.944932694355758
aF-3.4474544844107933
aF-4.48757328222009
aF-3.9042667523626022
aF-3.7974799574985125
aF-3.8633553432872865
aF-3.320130446580135
aF-4.125718462034368
aF-4.578859242947075
aF-3.728573526940311
aF-3.6970064767679784
aF-3.274762081208609
aF-2.859206576736792
aF-4.25286180990044
aF-4.266078829648276
aF-2.818383958459184
aF-4.197683067931439
aF-2.7763523933294234
aF-3.263791903121597
aF-4.145919855749305
aF-3.0779607287674704
aF-5.538000934289531
aF-3.708717596222245
aF4.653512808328799
aF4.87682662237833
aF3.201371545714697
aF5.018206068123816
aF4.04097004104199
aF3.9183510806612163
aF4.0901502408018215
aF3.4584129881854113
aF4.436615235134408
aF4.8587792268901495
aF4.617082511720992
aF4.651347823330239
aF4.31757013390227
aF5.423870955041309
aF3.6491495964206946
aF3.9315021734633406
aF3.9906136856614074
aF3.511208837164622
aF4.57928119726348
aF5.358845282767827
aF3.5107820346046243
aF4.165519053952554
aF3.708096706574107
aF4.210948353335969
aF3.4415565338753535
aF3.1253427934074254
aF2.7102252131133104
aF-5.3624167885921015
aF-5.018738378785527
aF-4.197766823580088
aF-5.050629563728415
aF-2.2747263697216553
aF-3.4441014835704262
aF4.210931714416816
aF5.086866938510951
aF4.459502288599195
aF2.940214784642663
aF4.863982142883252
aF4.814152285982237
aF-2.6246620725944263
aF-4.640076794620959
aF-4.62705247638492
aF-5.375825272004914
aF-4.097529722521872
aF-2.85214011397572
aF-4.353293516926527
aF-5.235536531915715
aF-2.491910091029159
aF-6.090997274838655
aF-4.52148360626648
aF-3.5916110901497373
aF-4.546720112841559
aF-4.823550709612968
aF-3.641949029450899
aF-3.7511837048792125
aF-5.3371971140462175
aF-4.731168976375152
aF-4.59777929808873
aF-3.813381370504234
aF-5.22785373286418
aF-4.333380137905726
aF-4.20392337224399
aF-2.481149380204123
aF-5.013155700010704
aF-3.2824829572908394
aF-5.020356433182799
aF-3.333448592985543
aF-4.4417539617458015
aF4.608435445531078
aF4.005899098855715
aF2.615644141032387
aF5.309287562020756
aF2.6973626216329434
aF4.4036728053007534
aF3.931937862316607
aF5.631873548039959
aF5.258380250345931
aF3.111391283146994
aF3.833960650641985
aF3.7578083882989377
aF3.4064042856616643
aF3.8299109452916453
aF4.593431509373231
aF4.242744611329353
aF5.440208650837484
aF2.783967448235293
aF3.725353951278437
aF4.686318570085568
aF4.105496187672946
aF3.677884873411679
aF3.884019342575017
aF2.6105002841692317
aF3.082632015077438
aF2.9907920774875816
aF4.865801594670865
aF4.961249644533778
aF4.389895362855654
aF4.606717043994864
aF4.779262033849122
aF3.724005899898491
aF5.400702783347003
aF4.460731639922057
aF5.2500298369368545
aF5.9108420534656885
aF4.09879069469966
aF2.9151654272039575
aF3.5345111476015605
aF4.5866054736857285
aF3.4516503118755675
aF4.075157699096354
aF5.452447969252484
aF2.8742768737969167
aF3.7800335668723037
aF5.7881033765166165
aF4.44894388668715
aF4.667204316189445
aF5.075295776750756
aF4.835478719553132
aF4.352405690753885
aF5.421106972720427
aF4.142301926136728
aF3.5682905659165316
aF3.5106982514301706
aF3.3395667106387457
aF4.234904482919896
aF3.3287460696205278
aF4.030018969046385
aF4.469904660302664
aF3.429949665074678
aF3.3110338376092217
aF2.3581510794403595
aF4.285114446133752
aF4.410026370551368
aF5.266633856658162
aF3.7669704643433453
aF3.8433361005892994
aF5.168441497218284
aF2.808850270796637
aF4.208195452250366
aF4.334585681110534
aF2.44988019232138
aF3.9699490537308555
aF3.8036414289517824
aF4.697859618150584
aF3.0330494794043865
aF3.198250309324475
aF4.602889853170118
aF3.7387389890148923
aF4.759694171354651
aF4.379738062550677
aF5.2365940229618495
aF4.1164465523797755
aF3.335674912477555
aF3.9949783026341223
aF5.379476620076208
aF2.6251696369620463
aF-4.486046279642631
aF-4.345661619831754
aF-3.6605784993348562
aF-1.5431548721632753
aF-2.880980300431304
aF-3.434857251440664
aF-3.652859997797587
aF-5.266889551704964
aF-2.1577866262617738
aF-5.055628601119993
aF-3.379785287864988
aF-5.431252546586288
aF-5.715123091289219
aF-5.8916752387425415
aF-3.684702371557408
aF-4.9608173832629925
aF-4.522612044394769
aF5.046919061527399
aF5.288715748003508
aF3.5760064367820026
a.