(lp0
F-3.282845488034148
aF-5.0910517722336035
aF-3.5340745419323705
aF-3.551854156924841
aF-1.4967642579882554
aF-4.276136908311152
aF-4.270448038777108
aF-3.806369362439394
aF4.513154819408999
aF3.8437136514085672
aF5.027405648560242
aF4.9244488428970286
aF4.278759522480483
aF4.481952698762478
aF3.420129023639278
aF5.424395432507912
aF3.739256868396935
aF2.494912971589917
aF3.390636818925274
aF4.633706415965505
aF4.582534769433002
aF2.391164499213507
aF4.824971139474154
aF3.9882534877333806
aF4.169177811989781
aF4.141718596055403
aF4.594103157027575
aF5.497633340714621
aF4.95566927524609
aF3.4943788755165244
aF3.105988605476298
aF3.586297483375215
aF3.488051127412885
aF3.5823195954130753
aF4.657198697202164
aF3.1089046831758314
aF3.158376339809266
aF3.8606275139308837
aF4.17245521258914
aF3.5972697684341797
aF4.026951276185459
aF3.061959718982295
aF4.914845011555565
aF2.56225450110833
aF4.089732978804072
aF-4.7431401186138675
aF-3.6651740962606167
aF-4.513559912319712
aF-5.198511310302817
aF-3.5146576422250364
aF-4.880973082856099
aF-3.8346900426775274
aF-5.846057767347508
aF-5.518692227214285
aF-4.695802683626701
aF-4.217009947726895
aF-3.7049055635359585
aF-3.7046623196806348
aF-3.5623763569421416
aF4.502814112256063
aF3.6329026226666783
aF3.6634779167808023
aF4.121704916929999
aF4.540697936655645
aF3.1210007270392053
aF5.7138210328446615
aF4.0479830649009925
aF2.3327530547519277
aF3.0157881856997983
aF4.833555542447905
aF4.336283579721105
aF3.726258041889863
aF1.995863915786273
aF5.177741910861434
aF3.1550581826479176
aF4.061393676251228
aF5.025772932085781
aF2.058582645766979
aF3.843042635944321
aF5.635334573887055
aF3.096810868053455
aF4.620565144107338
aF3.660013771804236
aF4.0769028023289975
aF4.126228007788819
aF3.9234765766201605
aF6.130691152162845
aF5.421361048526057
aF2.4211823350370896
aF4.283024852364176
aF4.784943425338291
aF4.5080556399555025
aF5.514374861130243
aF3.543462497228936
aF3.4738831031897606
aF3.5739454225235794
aF3.3030816038333493
aF4.095272816680533
aF4.280530563302316
aF4.24324157469219
aF3.233743713718483
aF2.8399936155183143
aF4.073469866284855
aF4.137235605966908
aF4.12201225004103
aF4.485641976409588
aF1.789575268949962
aF3.96164435943974
aF4.395883273242345
aF4.256145504101273
aF2.575545565003935
aF3.5621938333330903
aF4.019077783363815
aF4.530045170582759
aF4.168616017873536
aF2.900259887001178
aF3.0759852910689234
aF3.8675005898033743
aF5.43950880732803
aF5.437276464181035
aF3.9452453270030663
aF-3.142072103563435
aF-4.814538383394614
aF-3.0790612696582453
aF-4.308926207768139
aF4.080674497279263
aF4.643094894248051
aF5.4482667703588294
aF4.643662096480788
aF2.80449805892972
aF3.9538131654267312
aF3.3377213507700736
aF4.136200848974435
aF5.272894109444695
aF4.368732738180131
aF-5.397040561309795
aF-3.9970714281563358
aF-3.6133821106976907
aF-4.406035428912716
aF-3.9977522475609297
aF-3.178967497670294
aF-4.03315231414676
aF-5.406253078281661
aF-3.2437033872546848
aF-5.26633781682363
aF-4.227434089985901
aF2.8480851374980256
aF1.2059708425754123
aF4.493638849798241
aF4.460362655492983
aF4.374277732693804
aF3.7068669928454554
aF4.249207252337524
aF4.325480452854503
aF3.5367653485291877
aF6.026724448434222
aF3.7433226493642464
aF3.036208552726445
aF-4.618152485134961
aF3.131897710602376
aF4.832660458098223
aF4.7531898577610665
aF4.571409963811349
aF4.454861935506004
aF2.155249216665613
aF4.776375492047344
aF4.063693636642878
aF3.7822055229968123
aF6.047207420607378
aF3.662442166085462
aF4.868541210746164
aF5.145322505388164
aF4.923760353389633
aF2.7745252126737716
aF4.248866201553513
aF4.20649470242983
aF4.353979318480826
aF3.234422742954099
aF3.191620264306763
aF3.8976137980014967
aF4.675536166423625
aF3.5750437323251347
aF3.426502752118735
aF2.838112646755152
aF3.4419714055447885
aF2.505445362177662
aF2.8668722466096517
aF2.419758523442863
aF3.263125942315532
aF5.076700046634637
aF5.208475728806132
aF4.837400273528479
aF1.4593086072043113
aF-4.065229967137882
aF-4.054637447307769
aF-3.6833804964091974
aF-3.2783128007110607
aF-2.274954430054281
aF-6.499745787781829
aF-2.9143962044074114
aF4.4391987093272
aF2.6447300375019265
aF-4.148595337141476
aF-3.725080660178764
aF-4.3582113231434105
aF3.346666183306085
aF3.888454867577172
aF3.529753526435258
aF3.053494157196263
aF2.966718156318759
aF-4.909429364348472
aF-3.0340611414158802
aF-5.023813315508034
aF-3.3752260813467982
aF-3.047777732830152
aF-2.9232867390195034
aF-6.523402512570181
aF-5.108223063433201
aF-5.215664565778264
aF-3.4622856597153904
aF-4.258129017941395
aF-4.949989749798107
aF-4.336098458516258
aF-3.6643395396858964
aF-4.6175431721735976
aF-2.6813940282534263
aF-4.0751662236367805
aF-4.530901524751054
aF-3.7216140179426174
aF-1.3903100187693025
aF-4.126987380981632
aF-4.168705910982362
aF-2.607314839846226
aF-4.556982365384048
aF-3.494338743998626
aF-3.0531518301807417
aF-3.30537347214929
aF-3.6919177092223996
aF-4.402044806899315
aF-4.2139989507774045
aF-5.601232069599527
aF-3.4565569144371677
aF1.7825405037761581
aF2.2615061961626606
aF3.8757302307938404
aF2.617348814309418
aF4.83566340263065
aF3.548118709875824
aF4.216248639125663
aF2.872378275592362
aF4.069510021073726
aF2.331245784668248
aF4.516208829453958
aF-4.295308106410835
aF-5.957038733250562
aF-4.295892996482316
aF-3.786021992055956
aF-4.133948578492182
aF2.0608188662164144
aF5.00295152577076
aF3.789380950937983
aF5.076261412949383
aF3.56299598284487
aF2.3094174624304458
aF3.280197007656188
aF-4.731956342638814
aF-3.6301771685726316
aF-3.6753075982783483
aF-2.306358432591199
aF-4.021557353588238
aF-4.261821758942935
aF-3.6870680971444076
aF-0.5559972266277464
aF-2.8208875840814676
aF-3.1336700916304823
aF-4.5101623605843555
aF-3.306750826976467
aF-4.417384255348071
aF-3.7968507764408845
aF-4.250768744606442
aF-3.1677303553436076
aF-5.182598934735134
aF-3.113486183563745
aF-4.591167003204367
aF-2.6201275862876408
aF-1.844487027779567
aF-4.631028837723706
aF-2.6722415278311966
aF5.198429582282001
aF3.149740584057948
aF4.405014877332249
aF5.290667072934898
aF5.376476194652088
aF-3.2066232171574476
aF-4.462965198955701
aF-4.0869868341569875
aF-5.18314477160944
aF-3.567926951880541
aF-4.1116908246200685
aF-3.178641313135383
aF-3.031850285842094
aF-3.4933568060510884
aF-3.302868256301398
aF-4.739842365113713
aF-5.882055908242812
aF-4.777964574121155
aF-5.903611007236305
aF-2.769523259213844
aF-4.612655623862407
aF-4.027682105225637
aF-3.261388969769552
aF-4.697689957750136
aF-1.9487716918894238
aF-5.087152874253789
aF-4.662449632678195
aF-4.593594939952094
aF-2.7520027842094033
aF-5.3942025335286194
aF-3.3379308287613947
aF4.262073438653086
aF4.208590627829437
aF2.73105942930328
aF3.3006016536513596
aF5.154952314536913
aF4.820005058155873
aF1.5597952101733248
aF3.9522513673439907
aF4.348507365227294
aF4.238437898219478
aF4.5814473640520434
aF4.457880600422705
aF5.171690367801519
aF1.9283701355757112
aF4.751119099904368
aF-3.3951182150106654
aF5.610380020169954
aF5.682745584391
aF6.085998208235885
aF2.914467658020289
aF5.074063432394173
aF3.8888823812890068
aF4.885791793208335
aF5.664306466304811
aF5.057237265273125
aF3.932043266216989
aF4.231751839338807
aF4.698318754071454
aF4.17160987255872
aF3.5954499859217264
aF3.8116569363622945
aF6.239272891487929
aF3.717035299662083
aF4.567765569818987
aF2.7872751336747497
aF4.583896144961004
aF3.8112725094604767
aF2.5349879348327944
aF4.866821074337324
aF4.066059171151866
aF3.210667399453187
aF3.3500301261356062
aF2.5685363271425765
aF4.605461431589003
aF4.23479883470117
aF2.5170561658634383
aF3.2780239422545168
aF-3.194274626521425
aF-5.075742054571872
aF-3.3762653137992844
aF-2.999638292231049
aF-4.388003480673609
aF-3.895137560205712
aF-2.4993801338152375
aF-4.911730607023101
aF-4.006086176210839
aF-5.15832268436484
aF-3.742907398563636
aF-4.03504176322862
aF-4.607592764383105
aF-3.8490452284704775
aF-3.0079321916912596
aF-5.108651546448361
aF-1.2743120296971746
aF-2.7687069587106627
aF-2.7542028912068455
aF-4.5383233280049
aF-4.341237176667098
aF-3.4143350345020336
aF-4.439136833829902
aF-6.183316345142002
aF5.871405772235969
aF5.478191516718314
aF2.982952588323842
aF2.1611867822476585
aF5.119990409503294
aF4.448390547770847
aF4.23411294597967
aF3.708363792565543
aF5.418409162281702
aF-4.3505348415006475
aF-2.806136766541913
aF-3.8502747537548685
aF-4.87066289109559
aF-3.5613020273012075
aF-2.4484976035434736
aF-4.840210844747651
aF-3.3956293228422503
aF-4.319761780801576
aF-3.3490194590453597
aF-4.1383434261471095
aF-4.35543128547687
aF-3.8884923394120863
aF-3.3906838927417158
aF-3.974471326323439
aF-4.300222535539784
aF-4.2316699788116905
aF-3.8752511675437584
aF-3.576472872695367
aF-5.288301121639909
aF-6.435592244934216
aF-5.894485230711368
aF-3.7664963881974844
aF-4.23379180002319
aF-4.074132670337704
aF-6.229671002998224
aF-2.6140100189272317
aF2.785283590882792
aF4.072969124533911
aF4.856172076728615
aF2.1902607228321274
aF4.328789367754476
aF5.806373579169947
aF3.3202426240464433
aF3.7285334285484177
aF3.2582288952850504
aF4.237758721242224
aF3.4438844371238293
aF-5.276590278053489
aF3.618397295702141
aF4.675066978856923
aF3.4171405803387565
aF5.580968988559478
aF3.311002851519353
aF4.08311537399278
aF5.098433593723585
aF2.4802018459711617
aF3.70812721279615
aF3.6881355389650317
aF3.717978071679132
aF5.327996809082918
aF3.101753407947223
aF3.2790973722491117
aF4.458378142000613
aF5.116591509266743
aF4.718553502529055
aF4.591110913260489
aF4.968136674509951
aF3.3401677827489915
aF2.666564670360607
aF1.9111823905086682
aF3.1039192997613085
aF3.9833868799181906
aF3.8804340156632837
aF3.905260610202598
aF5.354387041332984
aF4.326391636881726
aF4.2222291704153925
aF4.163458697675814
aF4.18812004958816
aF4.795069844491942
aF4.087936605370455
aF3.37442005246892
aF3.553370256603335
aF4.898308610265724
aF-3.4536998942011987
aF-4.902809022850633
aF-4.7457814142202785
aF-4.686580608613881
aF-4.098038433756528
aF-6.335344364592672
aF-4.897350762755452
aF-3.8046519925104225
aF-4.019817686198801
aF-4.121138518972581
aF-4.179668316502436
aF-4.644972757803926
aF-4.102558288320145
aF-5.159518255155562
aF-4.248566277314426
aF-2.914438503200826
aF-3.4098094012287783
aF-3.731469718857566
aF-3.3400733199022485
aF-3.0420337254205863
aF-4.472973532320841
aF-4.739475731900999
aF-4.0609016099426505
aF-2.4880228298280302
aF4.860317461606436
aF3.287252456749677
a.