(lp0
F3.9576459121141885
aF4.209460999188241
aF5.213946356453228
aF2.331033771120887
aF4.374500296015386
aF3.829218873375807
aF2.7164356483964065
aF6.012523493643936
aF1.6405896824903037
aF3.402156754396713
aF3.848710979103209
aF4.241615057237676
aF3.037999550514604
aF5.454558354424709
aF4.664262269231172
aF2.651472484262408
aF5.715798571639802
aF5.15865661432663
aF4.795224881410841
aF4.069851883369143
aF4.858939593775945
aF2.6231104507424066
aF6.398440095556398
aF3.6040093923340533
aF3.650043350871396
aF4.8188661687204695
aF3.898968844999054
aF2.346250784868806
aF-3.5240377658110766
aF-4.426945802629596
aF-4.756023219200853
aF-4.379810246655374
aF-4.533885195678036
aF-5.746756561635883
aF-4.658596927412253
aF-4.3437164860354125
aF-5.307300631478743
aF-5.920989658387592
aF-4.250215521494206
aF-3.088230102522953
aF-4.133386754813125
aF-3.8287741946255727
aF-3.865751195807478
aF-4.95759558423344
aF-3.8134920311909055
aF-3.8512281035553437
aF-2.751978292355326
aF-4.073074701409904
aF-4.327440326480222
aF-4.37399583122623
aF-5.379719756922506
aF-5.449428008618736
aF-5.661477334515895
aF-4.037255758497381
aF-3.73533304882349
aF5.06092593543757
aF4.359898989565428
aF4.210261279058848
aF4.392678453437762
aF2.3782654257367835
aF3.8993843467372495
aF3.5047517782267934
aF4.499439583930688
aF3.597237718828766
aF4.846768408668526
aF4.428042369834257
aF4.0013947494415
aF5.0371866290311385
aF3.9921902582416364
aF2.890413289585675
aF4.685871050012314
aF2.8170742967677604
aF4.347107628119907
aF4.240554570265224
aF3.02004350447661
aF5.440473326477287
aF2.945820712751482
aF4.276180709206118
aF-2.59171004009294
aF-4.388670920574906
aF-4.6171097434431
aF-5.309877260690576
aF-4.749895633457685
aF-2.2103744015352413
aF-4.5772367345515725
aF-3.9003564336242467
aF-4.511817399163195
aF-3.2748029714237226
aF4.009347216263092
aF3.710044207771683
aF2.799168038159082
aF3.8741949043399204
aF4.418066710869607
aF-4.164801974371303
aF-3.181245087175709
aF-1.8015059233048722
aF-4.2086612504666085
aF-3.9552083361147874
aF-2.110802585402479
aF-3.269003922056307
aF-3.6544978347667207
aF-6.754598997886761
aF-1.868317376042778
aF-2.075665528735559
aF-5.0525910055574315
aF-5.388887421759156
aF-3.127106277273994
aF-4.146332488810017
aF-4.482762291524379
aF-3.763531691906123
aF-4.546182719232916
aF-4.092078651196713
aF-4.16121550505183
aF-6.232120141698207
aF-6.17554968634388
aF-3.083069274748668
aF-3.602087455007083
aF-2.5702145565945598
aF-4.346404655314305
aF-3.879392648390364
aF-3.480523287762985
aF-4.709870468624092
aF-2.615740822180383
aF-4.15701183621949
aF-3.2518246189510984
aF-4.117753587821871
aF-2.985836055567085
aF-4.580257364824147
aF-4.024151469295201
aF-2.559067221188946
aF-2.4195339356088734
aF-5.847889609090569
aF-4.053562624270023
aF-4.093612375013424
aF-5.129885099107648
aF-3.2599393373553536
aF-3.4785858221873633
aF-6.079056198178886
aF-3.203205395764294
aF-3.7775068790933157
aF-3.5006109539416044
aF-3.334262248715115
aF-5.342929574530185
aF-3.663190562700874
aF-3.397172670462952
aF-3.7805354836730656
aF-4.519587576346566
aF-5.4457520545747915
aF-3.295971952094343
aF-4.034564789858559
aF-4.02378833508491
aF-4.735526042279436
aF-5.936974541746686
aF-4.220029054004788
aF-3.7574508511235964
aF-3.5696972944848024
aF-4.669803947100622
aF-4.708517771058088
aF-4.7219369053246005
aF-4.4699006595320645
aF-5.260953450845699
aF-2.6746541847715934
aF-2.542368582978159
aF-5.375442479640435
aF-2.6854717241924755
aF-4.753657909194202
aF-4.174897734877074
aF-3.681529830304315
aF-2.9420246334961253
aF-5.75777829329718
aF3.126277872262648
aF4.452519876157651
aF3.7605358751852127
aF3.4080680022079006
aF3.857223466234529
aF4.177204905342446
aF3.7751621800510375
aF2.050104520280833
aF4.012146513644506
aF5.687938677052707
aF2.8153442288805524
aF6.007172643252712
aF4.725116897610617
aF4.057208983507281
aF4.106713958241543
aF3.1351732198448072
aF3.878366171730574
aF3.8402669598925323
aF4.295224523548063
aF3.9490684052508223
aF3.2382114463593954
aF3.3974555356669307
aF3.3760659251022327
aF4.8651417111868325
aF5.351706182166169
aF5.051577486797116
aF3.158262508871183
aF4.3554939597565365
aF2.432520081085692
aF4.549473532481393
aF3.436494217332152
aF2.137859878012713
aF4.071770473215792
aF4.112071634760746
aF5.8443066625803874
aF3.2361877131768004
aF5.8190537351684135
aF-4.083810027592494
aF-4.786063390504241
aF3.7313451906168997
aF4.1283820699052285
aF4.252866199763888
aF3.415556447305217
aF3.86022638937051
aF2.7351941983348675
aF-3.7859527596493603
aF-3.532777164234889
aF-5.187335707546847
aF-4.272097349791763
aF-4.398500459649727
aF-3.4904249705058037
aF-5.413867718744511
aF-3.8371519080308776
aF-3.6410755829937416
aF-3.947818112269572
aF-4.051755389961197
aF-2.837949008157355
aF-1.953954403260172
aF-3.4081113409333175
aF-4.149574363724619
aF-3.7603824375490422
aF-4.5496586227513625
aF-3.73430183387213
aF-2.696707836747882
aF-5.231415180181376
aF-4.745690643931769
aF-3.5575559134156274
aF-5.138516723911087
aF-4.737533107566228
aF-4.138861072688765
aF-4.197988883252567
aF-3.9983618665139264
aF-2.306652418340856
aF-5.182116683684866
aF-2.8239113589899647
aF3.7379920681771153
aF3.9978596978728826
aF3.546852603161249
aF-4.525189955490242
aF-5.07002100140128
aF-4.181032962789447
aF-4.564886136071718
aF-4.987398269945557
aF-4.030885209784885
aF-4.433654405642891
aF-3.3994978036194006
aF-2.0257520656666586
aF-5.320987427134307
aF-2.9935672918722207
aF-4.726857805951399
aF-4.269051376053396
aF-5.138227333260794
aF-4.270273630725311
aF4.614140818569727
aF4.619249106426572
aF5.361523587436008
aF4.5092741270578065
aF4.923888106958795
aF2.5396590363869356
aF3.577046698704108
aF2.424509591141108
aF5.0787781765328415
aF3.5047246432259
aF4.2266686718557285
aF4.158033390401973
aF4.736606191911891
aF1.7229427157545762
aF3.8907956425551804
aF2.498876239056849
aF4.479376829357435
aF4.572839887770781
aF4.9048704163812245
aF4.696149255854252
aF4.676694051316029
aF-3.218287083011986
aF-3.2694948541283098
aF-4.342829463148685
aF-3.196640523356218
aF4.103855234655329
aF4.770176128270436
aF4.364040179043299
aF4.760585143272512
aF-2.9191100593617936
aF-2.973830482937404
aF-3.46204209205165
aF-3.9986312718720183
aF-4.706352388374254
aF-4.699417379943454
aF-4.478253039833476
aF-4.263260190842649
aF-4.272764632880644
aF-3.523573849244909
aF-4.668806730555072
aF-2.1230101442344536
aF-4.034021767372897
aF-4.7116774559132395
aF-3.3335190097281746
aF-3.542680421689893
aF-2.907619117232215
aF-4.339785367305851
aF4.665133447773141
aF6.231935236472527
aF4.749423542141849
aF3.219032627801517
aF4.101179179920933
aF4.667273755437858
aF3.3734805239195045
aF3.66861438099935
aF3.1122424160956705
aF6.270212196515681
aF4.56765999583264
aF3.3026095130522943
aF2.652200865200493
aF4.381708334992606
aF3.3238385189438526
aF3.10691823841434
aF2.209149972002505
aF5.273574646140272
aF5.385359308495753
aF4.220811661974322
aF4.94766633973538
aF5.7795827553606
aF4.14388628073973
aF3.3834189618316803
aF3.570291989000601
aF2.2918175815427295
aF4.578693030753455
aF2.8694080797617723
aF4.511446338437547
aF4.610978223839924
aF3.5701417852993806
aF3.659809952943929
aF-4.428992550782589
aF-5.070667551258369
aF-3.557419474687209
aF-4.4496791171200085
aF-3.8217880625863163
aF-5.717635606015644
aF-3.931610438170842
aF-2.8909069380925367
aF-4.408164293003586
aF-2.968905562450807
aF-3.434410542211902
aF-3.320256156427246
aF-5.247293754668027
aF-4.6823843359978685
aF-3.4828486261656355
aF-4.5151510647075135
aF-5.7041616720621295
aF-4.5348142019558315
aF-3.7182726213124226
aF-3.7748630526952778
aF-2.002195580922459
aF-2.8323694296619815
aF-4.436388077586631
aF-2.0490421099442147
aF-2.6039508432602796
aF-5.031249528205021
aF-4.232120029377756
aF-1.9637217038121078
aF-3.0642957247419593
aF-2.8460657700081176
aF-3.6242874001369225
aF-4.150585918263671
aF-5.188745355344121
aF-3.9631702008313745
aF-4.609814935290511
aF-4.4612259099050044
aF-3.9818725515183266
aF-4.861332842970134
aF-2.273595544872557
aF-4.691788122313143
aF-4.25197140054348
aF-2.5274518107393398
aF-4.5025990358455505
aF-4.063803581652994
aF-4.774497999007591
aF-4.532030160323413
aF-4.3561275759908895
aF-3.376771542865587
aF-5.818008960615225
aF-2.6506167156638814
aF-5.025226209473454
aF-5.261218764813256
aF-4.050680127356262
aF-4.599136313401924
aF-3.965836999144595
aF-3.479682530624154
aF-3.950322085528673
aF-4.7033376443982595
aF-3.84141371872461
aF-3.7176690752371555
aF-5.298375235892155
aF-3.3446421762795984
aF-3.1642153469749394
aF-4.358159992118482
aF-4.828985380076227
aF-3.844649026552971
aF-4.669757256068175
aF-3.2925811104107696
aF-0.7717304999515027
aF-5.880024443046877
aF-3.9872695910531437
aF-3.7790204034555925
aF-4.493486216985367
aF-5.024854129957647
aF-3.9924447922626896
aF-1.8129346632836025
aF-2.9926675100742113
aF-5.8090901991190105
aF-3.1777717217846653
aF-4.784001510598147
aF-5.498600615288997
aF-5.20021258912113
aF-4.101905069960629
aF-2.8373293599199387
aF-4.2572382295683155
aF-2.4648046031877326
aF-3.754928097526891
aF-4.518578505579292
aF-4.690029202163597
aF-4.682397743041058
aF-2.9291617453521037
aF-4.00887763856201
aF-2.949564354879995
aF-3.932614841439171
aF-3.597569940208423
aF-5.557962719894083
aF-5.397221421094909
aF-3.803974149052517
aF-1.4483494219417148
aF-4.805280892667886
aF-3.315278608363459
aF-3.534687477149675
aF-4.827499275378731
aF-3.1562672567151924
aF-4.498820904029428
aF-4.061101704214876
aF-4.012155977852534
aF-3.4530186237146605
aF-4.341843249254251
aF-4.33483633175888
aF-3.6468351390410234
aF-1.9790513770754203
aF-5.183102129107604
aF4.38702774492197
aF2.555083405298641
aF4.60496376748916
aF4.033322740777992
aF3.1287025275658777
aF4.547343728207185
aF3.4510416466377167
aF3.64303401469307
aF4.8106559431565765
aF5.6240431806205935
aF3.2037593040547385
aF4.573961629409814
aF4.53204600832446
aF3.5508225604123904
aF3.6881261919561674
aF4.474770462770791
aF4.348437644691242
aF4.587704238066035
aF6.076708356135089
aF4.231074965217457
aF5.535198558508173
aF4.335755425303543
aF4.0598104961456265
aF2.963742898798615
aF4.228483774149973
aF5.0617725296241565
aF3.151802900478581
aF4.137535568430829
aF4.752487898414446
aF4.988347503297493
aF3.049429428989719
aF4.49788657111436
aF6.0999019510351555
aF3.9718880627189423
aF4.688675955434586
aF4.941020857403532
aF2.991660507286288
aF5.184100400339096
aF4.3142245338006635
aF5.076340164461121
aF3.922411711852205
aF2.1364299454244278
aF3.985020788645433
aF-4.9153999023297095
aF-5.420455243257338
a.