(lp0
F-3.9260511580369823
aF-3.3218419338050436
aF4.236869628660328
aF3.5342052902198997
aF1.6570725317162345
aF4.648697015194295
aF4.154456325066763
aF3.2127142089188214
aF6.282216558938837
aF2.3400140974864705
aF5.459203238564063
aF4.035628378616774
aF4.840576707789623
aF2.975495800827149
aF3.787041129468684
aF4.303225048779016
aF3.0741987498860146
aF3.9963674836356833
aF6.186536314066981
aF5.187578217024666
aF3.8800281893148845
aF4.108841454673249
aF1.9034698204094807
aF4.242320156340042
aF4.636459266156187
aF3.982904327130556
aF6.993024127003226
aF3.1981823263803695
aF-3.3203704923243986
aF-3.3036201879886566
aF-2.664760852601391
aF-4.558204458488469
aF-3.504345136753956
aF4.433623413883964
aF2.8197797610201705
aF3.283033417532967
aF4.220943623455832
aF6.376215662211463
aF5.0665330730316525
aF4.626503826777013
aF3.933287346107722
aF3.7034492548772735
aF5.416207372092176
aF2.126443526296918
aF3.197853456916498
aF2.67574608784427
aF4.316395039874987
aF-4.763759775187627
aF-4.393546605205063
aF-5.045053885767686
aF-3.1225957993408615
aF-2.480963777176551
aF-3.029695888721061
aF-3.818712537625563
aF-3.407304528859
aF-3.6123047399381907
aF-3.408400689508701
aF-4.774194116743314
aF-3.3552299996339086
aF-3.8816181231904845
aF-2.1964761487764175
aF-2.289875859261702
aF-3.1644039328467297
aF-3.9940767709895835
aF-3.7231944220971585
aF-2.2521461141013135
aF-5.116830025272864
aF-2.336048304025253
aF-4.294150738780258
aF-3.6906973578038467
aF-5.349040689171115
aF-4.650334826853647
aF-2.6007529747406517
aF-3.716262748306749
aF5.221398546565618
aF2.0105884184863276
aF3.878985573083015
aF3.2799944501171874
aF4.039682893854795
aF5.612837592860077
aF4.712400713934512
aF3.502956634831377
aF3.1039007112682357
aF4.799060277779695
aF2.4156969991234316
aF1.0988392096950417
aF2.5770057159398703
aF2.873929825469199
aF3.7219119921199972
aF4.854372625388957
aF5.479410548919247
aF2.7696676016489175
aF3.4333749954481876
aF3.5820471773034632
aF4.7795180817531975
aF4.442699361488191
aF4.721476727746471
aF3.962495607716368
aF3.9660118187820275
aF2.6228839277402707
aF5.056687006557966
aF5.494322028776171
aF4.3986123841334095
aF4.168811153410728
aF3.2409440646126817
aF4.255143264803878
aF3.532482177833859
aF2.8998586078603594
aF2.4338276530190637
aF5.1043792954558
aF6.9627433985557285
aF2.6323707909782943
aF4.47198589963448
aF2.673681155522414
aF4.550595061654345
aF4.003924775296031
aF2.8060947348775
aF3.556090032422246
aF1.8582856583640215
aF5.41066013336284
aF4.494623746929866
aF3.2048926402634708
aF5.442592177230672
aF4.4084478320491485
aF3.9819978076084066
aF4.363993112835643
aF3.4365441994516073
aF3.7612513746590515
aF4.953687963769047
aF4.9039436898473125
aF3.2706224597580618
aF4.269766201405892
aF3.101403880469845
aF4.788172413487506
aF4.789186632643891
aF4.078727591387374
aF3.234094930251627
aF2.4614226228667757
aF4.807555163483896
aF4.4254854213143835
aF4.530593279854082
aF5.057846955800272
aF5.605310969439261
aF3.581906645380131
aF4.169599700186813
aF3.992102928949398
aF4.277095744190972
aF4.750121754319041
aF4.988607030394029
aF3.456121942215585
aF5.620162465050608
aF4.372398879489385
aF5.203701623963484
aF4.6840398760601705
aF5.244629404607588
aF3.5027555384181768
aF4.95685606274635
aF3.5975080624642573
aF4.69758601795451
aF3.5564267393453814
aF2.252920788894408
aF4.176151807636019
aF4.9830283451498545
aF4.735563454267897
aF3.857230066868648
aF3.5674903068047246
aF5.65711413952935
aF3.109701474746198
aF4.514108279476657
aF3.253387844058894
aF3.189628613658312
aF4.376400976318093
aF4.765183544754632
aF4.37370615016612
aF3.722512327041775
aF4.662522457818222
aF3.455470420742581
aF4.568045331601627
aF4.779848752982024
aF3.4291941620673763
aF3.5534021161647082
aF3.773307123151611
aF5.423055581215199
aF3.816216696976294
aF3.2377366049726595
aF5.1003274975378545
aF6.101983993230897
aF-5.659656324435593
aF-3.994669184601561
aF-4.603837796292125
aF-2.981648040663382
aF-3.5306879814200065
aF-2.6233628417210584
aF-2.7563599027819983
aF-1.7644682016581084
aF-4.044974550628617
aF-4.115507545256116
aF4.122115644152967
aF2.8551387425611665
aF-5.116116371798855
aF-3.7675999572957775
aF-4.688180791732599
aF-3.886596417879243
aF-4.353928546450957
aF-4.599820257547032
aF-3.58792158595407
aF-3.2891414418756724
aF-4.1864956585328015
aF6.932522659920337
aF4.966522647233183
aF5.540577610689447
aF5.629734309823329
aF6.775514536548849
aF3.906436482534261
aF4.852102359705119
aF4.4699981414526535
aF4.5676612593112
aF4.566791100796045
aF3.662678753259081
aF2.9456359034972444
aF5.32869893740014
aF3.434424991094125
aF-3.551982378942851
aF3.5621472485569656
aF4.842003084276348
aF4.003325337479931
aF4.7996599709712795
aF5.100500480538964
aF3.5371828646281585
aF7.127307695413867
aF3.0788482799158188
aF4.239858260128117
aF4.7832941567393625
aF4.999154704566787
aF3.6689295566995495
aF-3.648252165685699
aF-2.0482755167346056
aF-2.381465931855062
aF-6.231636413029124
aF-5.077265523343583
aF-4.085002851289837
aF-3.4362786246309556
aF-5.279276048223798
aF-3.2168981452822827
aF-5.27911196496235
aF-4.102470486955544
aF-3.8082770100369867
aF-4.523516443643687
aF-3.4730840900097255
aF5.222706527374971
aF4.136814946413256
aF3.243541308174885
aF-4.302019603068576
aF-4.172437028926194
aF-1.874372363498967
aF-3.84446001027774
aF-2.8038962789200226
aF-4.158111271755309
aF-3.800263114316795
aF-5.9909221919986
aF-2.6944966530513614
aF-2.8308115035341723
aF-5.702884471377092
aF-3.89329372898502
aF-4.030393163741021
aF-3.182327904336664
aF-3.8641718482113863
aF-5.064204024964772
aF-5.041233983020434
aF-3.507408381954137
aF-5.753202598375027
aF-3.4918734594737786
aF-5.00083889867377
aF-4.958884780350951
aF-3.846871984697443
aF-4.439211872640059
aF-3.307200711787759
aF-3.4016710968952357
aF-3.5282713079301526
aF-2.640067653444672
aF-2.754197454590752
aF6.147659266833758
aF3.010025255501537
aF4.704760871588152
aF2.6165585761614505
aF3.3180237826269443
aF2.85747367869655
aF5.954959633098939
aF4.018521561872097
aF4.486969170790246
aF3.8740150199643857
aF-3.114747147255139
aF-3.5610915370981755
aF-5.413794453800483
aF-4.462471285882018
aF-4.760061054461934
aF-3.1178603715800106
aF-5.013927048498541
aF-2.8839439355753136
aF-3.7952711306537465
aF-3.3462992031085586
aF-5.160835515797968
aF-2.2103068099658785
aF-3.29457257691862
aF-3.980983525507718
aF-4.844666990766308
aF-5.029853229339133
aF-5.062005440076974
aF-3.039476280698382
aF-3.7041987173576296
aF-4.527207687626293
aF-3.042685397861898
aF-5.737599707844842
aF-3.4866764591839843
aF-2.9950733156098672
aF-3.53709665795152
aF-3.454367397827286
aF-5.549153638138507
aF-2.8264688140990284
aF-2.9612372366616615
aF6.706023969777608
aF3.466179140534051
aF3.5155881325798317
aF4.276185693090449
aF3.134013226308179
aF5.944810370882651
aF4.629622113140047
aF3.8245899640498036
aF3.8262150641299857
aF3.884644751015717
aF-3.959922518347554
aF-2.3577361350394996
aF-5.02012363762765
aF-4.793820561959691
aF-3.298419022704854
aF-5.240357946827194
aF-4.207077765234418
aF-4.714424049450773
aF-5.83749886702291
aF-5.532537756082659
aF-3.314178466806961
aF-3.6313379068831972
aF-2.5712698858247283
aF-4.557493322265731
aF-4.346453187145884
aF-4.734627886945202
aF-2.6795110574872725
aF-3.789077208245536
aF-3.9997388627354717
aF-3.6213359120820585
aF-6.079759518633066
aF5.045373727494216
aF4.288662994598288
aF2.7975537451086883
aF4.187344862857779
aF4.389897777561747
aF3.5296001200854032
aF5.055090718778034
aF3.1625650303566077
aF-5.4749563824698715
aF-2.210008780001698
aF-5.018428987933763
aF-6.154981258337759
aF4.326005626669693
aF5.224285592034595
aF4.396513934820485
aF4.3915264249396895
aF4.816232660293689
aF2.604154965161955
aF4.314143882808626
aF-2.6876964703367707
aF-2.728665566854388
aF-5.842935209186217
aF-4.161892183819502
aF-4.888014841413458
aF-5.894808112343296
aF-4.540467522160365
aF-4.645310859529743
aF-5.167488814009369
aF-4.307886293940403
aF-2.840510904034376
aF-4.345497197185913
aF-6.464527006467844
aF-4.796375663920743
aF4.420417992686125
aF2.52524878344262
aF4.194086614804695
aF3.325012068407234
aF2.69782853587877
aF3.7318136827027826
aF4.484587052736701
aF6.287990216884266
aF5.464580131494431
aF3.623720390424198
aF4.017994753058128
aF3.9230434435743295
aF6.265916756557101
aF3.102973476821533
aF3.5871651160654343
aF4.991667881886013
aF4.898336114254658
aF3.6242607043643496
aF4.089998458402591
aF-4.0594773192106715
aF-3.1738632820768045
aF-2.1289477035937443
aF-3.5943815746684624
aF-4.897860306242739
aF-3.652172264711038
aF-5.785551389175967
aF-3.1752326909626656
aF-5.015292026255143
aF-5.27442600330308
aF-4.350379040590115
aF-1.7123465506045545
aF-3.316840651591634
aF-3.3994604151228676
aF-2.3982356240739184
aF-4.810785707712227
aF-3.623983659156416
aF-4.000359750126659
aF-3.8270785650857015
aF-2.7032450246857946
aF-2.476642762528477
aF4.412284396051124
aF-4.842827531171999
aF-4.736965637500054
aF-4.721782901908747
aF-4.042483404559153
aF-2.586754279841072
aF-3.6701015511047665
aF3.3130858933411433
aF4.281917038124947
aF3.940701857443374
aF2.231723431205519
aF2.9773408052468957
aF5.050005314826955
aF2.1559972368403937
aF5.446163188392172
aF4.210177004267159
aF5.002563056545716
aF4.608505687692122
aF4.71035095683978
aF4.275034475264011
aF4.57319036039777
aF3.0491056975510458
aF3.582214044347184
aF3.614911952561657
aF3.316130266148316
aF4.670235352721106
aF3.1889651079883254
aF3.5603398626847693
aF4.652170630426227
aF-4.71277817981638
aF-4.842327264451764
aF-3.624096277197728
aF-4.104870024500416
aF-3.3464497164003855
aF-3.23071538589649
aF-4.264572690195274
aF-3.8758565031227756
aF-3.7486154967638616
aF-4.973616367906855
aF-5.672195742183734
aF-4.823349849844918
aF-5.358503329048444
aF-4.505579770010234
aF-5.682485755901453
aF-4.022553991462871
aF-4.701327240369579
aF-4.275231467975052
aF-5.2916265526403405
aF-5.764623028039001
aF-5.0818050978882825
aF-2.4838003501708124
aF-6.607131023109915
aF-5.056071846508114
aF-5.37126877328883
aF-2.129391217821099
aF-5.577503040006877
aF-3.620524047930637
aF-2.4599637555102127
aF-3.62764069635051
aF-4.238796052062143
aF-5.299095082473365
aF-4.631183958888793
aF-4.654690828715912
aF-6.001528920744258
aF-4.363576325751164
aF-3.8337546275917154
aF-5.205278257007763
aF-4.788708183338375
aF-3.1760262830158315
aF-3.670140983974977
aF-4.391573223718455
aF-5.1074426308856395
aF-2.1536948379568153
aF-3.0371738999541154
aF-2.643042191453624
aF-4.615695776419227
a.