(lp0
F5.818101897549848
aF4.581665691397122
aF4.152513139154113
aF3.893111354324845
aF4.318765207589836
aF5.668373285332312
aF2.5017724801897265
aF4.436027120750744
aF1.8389991149930975
aF3.792833269307262
aF5.615882543382403
aF6.495525037822668
aF6.409750965046467
aF4.661081464233652
aF-3.573787909962645
aF-4.227078025524879
aF-3.3078703314633096
aF-3.6756175880074196
aF-3.514272839571534
aF-4.8384132285600545
aF-3.062095894194731
aF-5.525430650117948
aF-2.4608225777553523
aF-4.321158903259907
aF-3.9443161564163107
aF-3.614421670780632
aF-3.475281896285916
aF-3.979775734759792
aF-2.7970844840677667
aF-3.8569178411993716
aF-2.318240041306982
aF-3.850957881342281
aF-4.202727065965771
aF-4.626683093492978
aF-4.388964331139905
aF3.755178743503243
aF2.982360534264377
aF3.718772741375905
aF4.379249283298119
aF4.621838279310596
aF5.24876120792088
aF2.4457389475245535
aF3.8421366137111344
aF4.166858645446219
aF-2.845236500414004
aF-2.160604270073708
aF-4.3310896258511615
aF-3.7845311935849937
aF-3.8790900109378468
aF2.9981459514798203
aF3.9913749213981
aF4.3123846661671745
aF4.728509576331725
aF-4.229376026717163
aF-3.8500973951630253
aF-2.698937599614988
aF-3.534776405309683
aF-3.292925917442966
aF-4.8164645135953705
aF-5.091152703284772
aF-3.908028316422018
aF-5.445345871605245
aF-6.337593070269412
aF-4.097727080635846
aF-3.816657222749977
aF-3.575307875326493
aF-3.0657505732219477
aF-4.4546227392169575
aF-5.2917346171117785
aF-4.301835067515901
aF-4.400687195260843
aF-4.867712695923584
aF-3.788409450217022
aF-3.3276480707976597
aF-3.4204993073494583
aF-2.7406269660075453
aF-2.686261652949837
aF-3.9019995284929228
aF-1.7936714184638438
aF-4.786264498424171
aF-1.893128732294608
aF-3.901414856426796
aF-3.8836171655028946
aF-4.389626608303213
aF-2.37725163722141
aF-3.920496655062702
aF-4.171746795952281
aF-5.184096073520572
aF-4.607860440116512
aF-5.442926921130465
aF-2.6218866289567813
aF-3.249092579492273
aF-4.496489450345364
aF-3.4547360130424765
aF-4.826534544193156
aF-4.673755149410413
aF-4.477034756167038
aF-1.9100482421929632
aF-4.275434679928389
aF-4.406732075361184
aF-6.947034292387114
aF-4.536523347602039
aF-5.218788733250005
aF-4.124205600479578
aF-2.2992654343571592
aF3.8005875333437276
aF4.762116864777287
aF4.825786519871472
aF4.03126747685047
aF4.629036342605891
aF4.1823457940431785
aF3.9191449536938263
aF5.323176394455981
aF4.766031129229784
aF1.6151109792488936
aF4.985587335159995
aF4.730330375467301
aF3.102456125940595
aF3.235179459983534
aF2.5400158887720594
aF5.651139163093519
aF6.001360295766054
aF3.2325678306859933
aF4.967387948580091
aF4.931054430305963
aF5.756404024611661
aF5.145546416355501
aF3.815117628097451
aF3.8505666304469943
aF4.880786115673316
aF4.1277361347921175
aF3.830589023286714
aF3.741471952995726
aF3.101275923107596
aF2.707060496208209
aF2.298743471955624
aF-5.298625823059616
aF-5.129083136562423
aF-3.471110326149408
aF-4.805937281748388
aF-4.942639636504094
aF-1.9040618103925913
aF-3.7919080357852284
aF-5.037043015243734
aF-3.5502868490650674
aF-3.9923925979871138
aF-4.0779550131261635
aF-5.141653267553319
aF-3.8671347925127404
aF-4.527045682608033
aF-4.235933962398932
aF-5.220803317780274
aF-4.179583935788455
aF-5.883599337545941
aF-4.1415780982496315
aF3.2056314686191323
aF2.3169567171509096
aF-3.352200013547505
aF-5.099242594118426
aF3.1894359819284235
aF5.2600231312262515
aF4.752732478214
aF3.407470027746405
aF3.347292545186158
aF2.781866816634773
aF2.460245928535821
aF3.6689761246161705
aF4.383308605912143
aF2.808373175081403
aF4.586928403086959
aF3.767097139882872
aF2.5799544662257183
aF3.764295511291236
aF3.1673451243452257
aF3.2430872187216773
aF4.57019858092802
aF5.314838548799787
aF3.8299010870246435
aF2.8202422965083
aF4.836590036374497
aF3.584754117089947
aF6.5336709403646065
aF-4.4307416744514185
aF-5.385249192485929
aF-3.774100441672509
aF-3.540863551359972
aF-3.5545374989948213
aF-2.3686753260882334
aF-3.843281648210475
aF-3.7006605514364126
aF-4.165523289152174
aF-4.005643512815452
aF2.7936847815505814
aF4.196017507378184
aF4.54648059527352
aF2.420031647947795
aF4.752632208772335
aF3.2774638370983666
aF6.306244054759842
aF4.080263045293579
aF4.041828846756187
aF2.799311396530145
aF3.8179798903956934
aF-5.3731562577646805
aF-2.8068128491456545
aF-4.5226485612024545
aF-3.90686823199011
aF-4.143275552733285
aF-3.9103108417445407
aF-5.767623699432729
aF-2.5716198743282197
aF-4.743102160505422
aF-5.280241246482876
aF-3.2724523348959202
aF-3.9191066306648197
aF-4.780177105185756
aF-3.5899820325357212
aF-3.450904228845433
aF-3.306652050431265
aF-5.874902727237275
aF-5.426528511009273
aF-3.2345344430380685
aF-2.802957024871037
aF-2.2858084470565947
aF-2.653637755145634
aF-3.392770895376671
aF-2.8447048597312596
aF-4.568912088251061
aF-3.719758996727913
aF-2.5406313630655544
aF4.158106061501927
aF3.6335068995112776
aF3.640260612426705
aF4.4728332952543335
aF4.873317904919029
aF4.472436975991184
aF3.1484756228474216
aF2.8555659215996974
aF5.027897051392541
aF5.367962630072761
aF5.3590225405494545
aF4.476975229601365
aF2.5161337451143653
aF5.246924743638957
aF4.962672125752853
aF4.676332039117505
aF3.5853535189561487
aF5.1062125358524
aF3.1933863268211393
aF5.458857218335977
aF4.91084386765867
aF3.901230457023809
aF3.3818453570472884
aF3.8323945362639398
aF4.207355547878021
aF4.872910249889363
aF3.28698853324639
aF5.823243126323835
aF4.173289765769357
aF3.210545096111855
aF4.218872326269554
aF3.219485017285079
aF3.7159612684532792
aF4.832157931032533
aF4.658842893151329
aF4.489695271545496
aF2.3476994122793347
aF4.515130037815195
aF2.746975521476574
aF4.805524874996239
aF2.261582608561809
aF4.254974878967503
aF-4.179794786763344
aF-3.377172344142852
aF-4.55204116337491
aF3.7301935614721486
aF4.042125065813277
aF4.134542997978001
aF4.283370585735622
aF4.192672355117648
aF3.655648489507474
aF3.9680721800938032
aF-4.406998665224949
aF-5.454546855593024
aF-3.7125039293772257
aF-5.091371673931308
aF-1.5556231356446357
aF-4.476999625508845
aF-2.7123269654806617
aF-5.208486564614661
aF-3.648604681244366
aF2.4007208400930646
aF-3.763391122539511
aF-4.840586001657108
aF-3.977175862279565
aF-3.767891736526733
aF-4.847535875424205
aF-1.8747712970593073
aF-3.519387237784171
aF-5.7571473537838465
aF-2.1545922719949675
aF-3.9037057683403953
aF-3.84200128868796
aF-3.9447575132247787
aF-4.077555568286769
aF-4.023247961160579
aF-3.850388294677969
aF-4.312857205666968
aF-3.5982442864314637
aF-2.8173627177385443
aF-3.7738326817531886
aF-4.226286660367346
aF-3.4612155990852758
aF-5.095216722111663
aF-0.765926061284286
aF-3.81007741550787
aF-1.9724520488000996
aF-2.800086087465443
aF-5.134917841274155
aF-4.343342061879004
aF-3.315738214431535
aF-3.327169491613521
aF-3.9965759107790695
aF-3.5277275660061918
aF-4.175094680243006
aF-4.982265188020263
aF-3.0335713780439866
aF-2.779623485348247
aF-3.7637333050016504
aF-3.5118012347083227
aF-4.262818202608276
aF-5.225691019901176
aF-3.6513398974601543
aF-2.5227393304771617
aF-4.3212309112421154
aF-2.850094326614931
aF-4.425455416448342
aF-4.6145704769015845
aF-2.5714677262310017
aF-3.0422117855693864
aF-3.731104696996648
aF-4.329094285249899
aF-3.183936285817091
aF-5.375960199262551
aF-2.74289819471658
aF-5.750037938388921
aF-5.023150767375535
aF-2.2827519792632573
aF-4.264632996184105
aF-1.6982500897153705
aF-5.186396850668333
aF-4.7253462405273305
aF-3.88567317376414
aF3.1345634001486817
aF2.806575138426674
aF4.171605043380333
aF3.321997490588535
aF3.581454946686971
aF2.4958697245329127
aF2.2150714743307223
aF3.4927788515179943
aF3.5656874778194383
aF3.2808691271135
aF4.5415768195037876
aF4.5295277806683
aF4.550361572247189
aF4.43305933483272
aF3.892131358597762
aF3.029235036640853
aF5.261860430467708
aF4.529234507985893
aF1.7232107329900357
aF4.728068108262605
aF2.97232893789167
aF5.043745249750716
aF3.2698337661478245
aF6.151022498498499
aF4.938770094133314
aF2.7085831077281224
aF1.8366791524846997
aF4.645248352211518
aF5.664499030235495
aF5.145907367134788
aF3.136204878802148
aF3.7542694890428896
aF2.8489341284929957
aF3.7039718624900155
aF5.364208467475988
aF2.619788236426202
aF4.724541948092089
aF2.7869378578127204
aF5.582060108541241
aF5.592671580816235
aF-6.362620366088838
aF-4.242215181151241
aF-3.4515620286619937
aF-2.740448724712727
aF-3.7369612954665854
aF-3.407014390643513
aF-4.203471055450885
aF-4.919218581467561
aF-4.669849231319519
aF-2.200769412242331
aF2.1936458475639427
aF1.492211412305148
aF5.032016377235185
aF2.726230943363788
aF4.054577673661957
aF5.172852819242118
aF4.052497718248762
aF3.209060003997366
aF4.931622143026775
aF5.49063932165148
aF4.46448222040739
aF4.8468782757043405
aF-2.6361449514509916
aF-5.137169299595769
aF-2.714517767063639
aF-6.514159869206484
aF5.0098462842984075
aF6.163258977118023
aF5.315840877792661
aF4.138471877349012
aF-4.67023917443063
aF-3.9365314400118985
aF-4.359275872632823
aF-2.7488495642374042
aF-3.8853121471415744
aF-5.451345145224405
aF-4.477603445667327
aF-3.58581809842673
aF-3.39248665574045
aF-3.9322029674197325
aF-3.237212537460814
aF-3.0399522592951396
aF-3.6270394433922073
aF-3.818569169732436
aF-4.054650088073791
aF5.960148241922495
aF3.484191468798106
aF5.318888439064055
aF4.3354635628185
aF5.375899026500989
aF4.407080807886973
aF3.487220446577832
aF4.423491948577528
aF2.9998571091037727
aF3.243856843552052
aF3.0085500248183545
aF3.599516998930294
aF2.927724874516711
aF3.8176895905364936
aF4.328603990649059
aF-5.265724230589269
aF-5.803454309970311
aF-5.682513507580886
aF-4.863667585116179
aF-4.854775716084616
aF-4.679706335161715
aF-3.7860286407206405
aF-4.665118577024387
aF-4.271655693829735
aF-3.746795777143705
aF-2.073772186456363
aF-3.275479382943608
aF-2.2921695677719285
aF-3.6083039772976195
aF-2.838877776659932
aF4.766840005932652
aF2.308096246889436
aF3.283804922844433
aF4.271130314836998
aF1.8488200935129315
aF3.6792117579053696
aF-2.7442449799214508
aF-3.9929694096754966
aF-3.012801739462321
aF-3.774016279674236
aF-3.6824885132077134
aF-4.517456411578226
aF-4.504947091602597
aF-4.4376261795101986
aF-4.745375123652447
aF-2.7393663738318783
aF-3.329259188289404
aF-2.599805240024975
aF-4.39257476890869
aF-3.616166830472055
aF-1.6276786860509147
aF-4.176754425155238
aF-3.6587030710360717
aF-3.274584005153446
aF-4.20400232247628
aF-5.537943249287395
aF-4.126647679221429
aF-4.289306207086788
aF-4.484340383472075
aF-3.9743398911285186
aF-2.6011177926743843
aF-4.195394099183045
a.