(lp0
F-3.5499969567864302
aF-4.874811598245956
aF-6.862504043249832
aF-4.1818113315593495
aF-3.610818748009732
aF-4.9565663807050315
aF-3.6017665679764734
aF-3.7345110299202977
aF-2.8981307876101994
aF-2.8931425157585577
aF-4.799788942386997
aF-5.691550018843025
aF-5.271056346608199
aF-3.1126865422425967
aF-3.3276544936898658
aF-3.8724957364037293
aF-4.546179593552077
aF-4.074740680396557
aF-2.919746163004863
aF-3.68252547538557
aF-3.733075534949066
aF-4.702921118666876
aF-4.42957012342016
aF-4.6866010628371555
aF-4.199646069060872
aF-3.298589093953238
aF-4.97165361150147
aF-5.181796415359191
aF-3.9731835026621884
aF-2.273362256615549
aF-4.51748867819777
aF-4.371819479883091
aF-6.682371717608685
aF-2.3731326603961636
aF-3.1498856194727676
aF-3.223525606779223
aF-3.974753470475819
aF-4.829613623318251
aF-3.978218028384837
aF-3.1556758958396305
aF-1.9475684683074603
aF-3.9390697577835625
aF-4.37242466469263
aF-2.3217570546967266
aF-4.393539690917583
aF-4.815407862981093
aF6.914222123742618
aF4.512006677626267
aF4.74598690215097
aF4.123389323955071
aF4.180474940496915
aF4.216602798846496
aF1.1063635526646913
aF4.269810261596137
aF4.410639300325868
aF4.757032036643606
aF4.722869697682734
aF3.468347295665719
aF5.016014104240639
aF4.200079306773569
aF4.830843282983144
aF2.9564513531780143
aF3.4271934640267845
aF5.076580546729753
aF4.937016456513493
aF5.646126850961657
aF2.795975191486871
aF4.204555312799081
aF4.705333121141579
aF2.896317084953542
aF4.2911249376394895
aF3.116241477911708
aF3.484826551412564
aF2.7691776874289196
aF3.901529658884793
aF3.7651509646296564
aF-3.893186031948408
aF-3.77544958190732
aF-4.106743649756725
aF-4.422098481167906
aF-4.406803026760171
aF-4.163583967098941
aF-4.937392703376508
aF-3.6998957618928476
aF-2.1887443604940646
aF-2.6303484738746263
aF-4.704976539186086
aF-5.322767941831467
aF-3.063574636212921
aF-4.095108085206299
aF-3.314248572644055
aF-4.028729468296982
aF-5.472529316278523
aF-3.9125838634475616
aF-3.026442387546915
aF-3.2685872984267266
aF-4.852564486094172
aF-5.654746839315754
aF-4.6557962126558055
aF-2.6332948576350095
aF-4.239373411246161
aF-3.8979001940382316
aF-3.6471349194699694
aF-3.5152223573031236
aF-4.281584233744277
aF-4.505598797616624
aF-5.662119944347331
aF-4.121452838414668
aF-3.320609289443431
aF-3.082557589169246
aF-3.7242731224922037
aF5.603407699941475
aF2.90869277094057
aF3.5132714778098353
aF4.45461265629734
aF4.18820672396909
aF5.41797721463862
aF4.198530126237658
aF5.173234641543787
aF3.076241355420359
aF3.236510094174557
aF2.9456170246562516
aF4.377326209101336
aF4.731710448790904
aF4.448617595299491
aF2.386702007212468
aF3.281906990982425
aF4.660147681150487
aF3.9186270633212215
aF6.2637718278879815
aF5.6966810455493135
aF2.3185341746885926
aF4.903085254283455
aF3.8076173650879817
aF3.3511672843095353
aF4.619328890820343
aF4.737045934438276
aF4.051920193378129
aF3.146659030219122
aF3.1066990421952396
aF5.004101791598675
aF4.797760798658936
aF6.888908166378586
aF5.628698053055192
aF3.8815382777771554
aF3.814843008685316
aF2.847297624756462
aF4.3550182003309805
aF4.412921536883305
aF3.6101606823106227
aF-2.7405903626402233
aF-3.4228238646090237
aF-4.650799877068526
aF-4.5953557414984925
aF-4.0617041349857175
aF-5.124413732888642
aF-5.436714152955988
aF-4.1253653178796155
aF-3.010150579804066
aF-4.3314464379691575
aF-5.604671842185908
aF-3.6819253513677386
aF-4.784691447228725
aF-3.588860933522678
aF-2.838027664744157
aF5.346062009746772
aF4.502144361173724
aF2.018745986976485
aF4.870387238700144
aF4.392391238079542
aF2.5457497544067627
aF5.326859035431158
aF3.15663716390637
aF-3.4913404886101813
aF-4.850248460006815
aF-2.9246686639027812
aF-3.5208009863700447
aF-4.419874257126215
aF-3.5564047844958484
aF-3.974661021254999
aF-2.888181637419176
aF-4.475221836200175
aF-4.63540566187689
aF-4.879909197810786
aF-3.4170121123285657
aF3.731809860377981
aF6.277350592684263
aF4.3647731255460975
aF6.037782864516368
aF3.5705516598013847
aF3.567860701325328
aF-3.7424310678457955
aF-4.280484645572
aF-4.302734014636113
aF-2.92143405167072
aF-4.553821954062174
aF-4.970610008456907
aF-3.553227903409318
aF-2.8925162459113567
aF-4.346519113329337
aF-3.839399093965229
aF-3.933841032712441
aF-3.6003206702088253
aF-4.572757986863749
aF-5.656013996599567
aF-3.7821176895557884
aF3.9328167698046337
aF4.150006237871618
aF4.343022738783286
aF3.6510235246670932
aF2.809333418106915
aF2.977113688060484
aF-4.879609700765884
aF-4.065415544134315
aF-3.621378202331344
aF-4.966591416341263
aF-4.534649465113798
aF4.178233996106416
aF5.512148378203371
aF-4.225491223839344
aF-3.488043155132653
aF4.620607831177489
aF3.944281416779796
aF3.093207282047051
aF3.360035839945894
aF4.308829512689497
aF5.333251024895983
aF3.379771520810033
aF4.534013126029767
aF4.234001776464046
aF3.4940550646988005
aF5.523486389933508
aF3.8530859056779816
aF3.1431372103487565
aF3.4731432664984188
aF2.784810208895954
aF3.101999064095768
aF5.875706552784196
aF5.882482518261735
aF4.16607267941787
aF5.253942706074663
aF2.903272305815058
aF3.8471032432203858
aF4.5401696704428005
aF4.552103365794535
aF4.758410472964938
aF3.355780476182489
aF2.897184680969
aF4.021981491095572
aF3.7500298149918176
aF4.178264440407434
aF4.392371980309044
aF3.9015180204176936
aF4.486883651393052
aF4.72696690090206
aF2.936737002775155
aF3.627650402552727
aF2.758304411958498
aF4.6137080676815
aF2.7053147461305342
aF4.833668836235876
aF4.383735074311277
aF5.916892968208982
aF2.5199620420980633
aF-4.553210245187732
aF-3.6679154574451203
aF-3.390121284868554
aF-4.73301793586876
aF-4.239522601616283
aF-4.744579780275636
aF-1.827852342102037
aF-4.008203319657486
aF-5.833920170130406
aF-4.0616321276467335
aF-5.0195936755617785
aF-3.9138667367237896
aF-3.31357706327424
aF-4.9092640961214515
aF-4.185220359260812
aF-4.019159213325496
aF-5.057489726149395
aF-6.346539359963563
aF-2.8415968025744665
aF-3.508753449919046
aF-4.318472887298964
aF-5.925068362928635
aF-2.7569922891260945
aF-3.910766854745402
aF-4.367934474767972
aF-2.4176017504313103
aF-3.7025993543041604
aF-3.6861740416501974
aF4.3055868709041665
aF5.675161253630184
aF3.294999707354658
aF4.338563678327871
aF3.0272871164356925
aF4.046055851590051
aF5.306515266400095
aF2.628077371813956
aF4.667641458390416
aF3.9562276252591286
aF3.617750467938654
aF2.8061661838596814
aF2.939244776499484
aF5.3460531435577545
aF4.315298160156062
aF4.43039643254813
aF3.685281007939836
aF3.94053669725118
aF3.051223554273375
aF4.149887419746266
aF2.664979156635986
aF3.054685626035054
aF5.451843759994658
aF-3.1969885528090214
aF-4.702202442178881
aF-4.561414844352603
aF-2.30917019817095
aF-4.3057680242276835
aF-4.7825152739467445
aF-3.3257610761287943
aF-5.018477364555201
aF-4.355917397413572
aF-4.110263794487233
aF-5.113176712992917
aF-4.6427496225685605
aF-3.428243086480926
aF-6.2855168997528965
aF-3.6513226054395176
aF-4.629143086940569
aF-4.394871204937037
aF-4.1286565049772355
aF-4.558724660995139
aF-4.722022019872065
aF-4.5146308652953095
aF-4.527403879121601
aF-2.825274790842563
aF-3.2053654432070324
aF-4.366189495759799
aF-5.360312454444224
aF-3.9495968148989253
aF-4.325552470924281
aF-4.372572372186415
aF-3.1211807273597807
aF-6.983430466943822
aF-4.480500256412459
aF-4.394996310229236
aF-3.3168034378058224
aF-3.830596162381186
aF-4.991302429352677
aF-2.661474842339765
aF-2.7866383330763806
aF4.617668780660193
aF4.446246200565221
aF4.789523587150579
aF2.9393234880798556
aF-4.815011948390286
aF-4.563954158387276
aF-3.9343076738941476
aF-5.844874135069838
aF-4.729024399198089
aF-3.6435276325531927
aF-4.928489219412495
aF-2.745193869605139
aF-4.332775623701718
aF-1.4057290650864185
aF-3.988031234808054
aF-4.229099516526066
aF-2.0046082730223613
aF2.3860919355330075
aF6.376483329330837
aF4.767781276559182
aF-4.833943293644465
aF-4.661971640739205
aF-3.107643129415893
aF-1.2569228063524625
aF-3.97088057755926
aF-2.183623128568689
aF-4.409793588620216
aF-2.60861800570878
aF4.104373624942598
aF3.8857054507500903
aF3.253298818976974
aF3.178167613137276
aF4.684875959133084
aF3.404891447649438
aF4.731778296194877
aF4.0690407744864805
aF4.452528190502105
aF3.0036762373061436
aF4.168755025308333
aF2.333683500241161
aF3.7130517680086514
aF4.388965805973039
aF4.85055122431374
aF3.763389189804569
aF-3.970892221856185
aF-4.494598739774555
aF-4.0245232552960255
aF-2.357126886764436
aF-5.007571924345434
aF-5.4239363656125645
aF-3.954995090336321
aF-3.4044349090380353
aF-3.7692285233463725
aF-3.8420914692700157
aF-4.494542867873523
aF-3.768566908285449
aF4.155342362164943
aF4.490491701677844
aF3.807707224781055
aF-5.529065334470691
aF-4.7897666802240595
aF-3.9883802199940948
aF-1.179587915963082
aF-3.7804824288088095
aF5.0238257875497085
aF4.488947791394246
aF5.104711252014147
aF3.2795301932649417
aF3.6650606489570876
aF4.094422903702442
aF3.0683146391780984
aF5.096558482384581
aF3.9261328588047837
aF4.514624807860227
aF-4.287133856227675
aF-4.2455740924157785
aF-5.24140246647557
aF-5.270307584701529
aF-3.0293450162219067
aF-3.9954900516214833
aF-4.886153759047583
aF-6.520791330089891
aF-3.255753542593368
aF-2.337604071921719
aF-6.575808117009981
aF-2.984553364559032
aF-4.169315594226859
aF-5.07683155621786
aF-5.287720666475141
aF-5.32693103006283
aF2.746065673242752
aF2.36303142103654
aF3.72213130776355
aF4.023895298655959
aF4.175078737412228
aF4.23052190113659
aF4.570863005589823
aF3.799945554538944
aF3.0690406519723172
aF4.586993310248964
aF4.18116683404076
aF7.556646825852708
aF3.7459213141290886
aF2.213822406685672
aF4.222969009209374
aF2.498117880277051
aF4.283990521521929
aF5.829104380128563
aF3.483170279121345
aF4.7230259399782675
aF3.977499397745408
aF3.4139277706708047
aF3.2722041036464877
aF2.948183251038871
aF3.394104626185233
aF4.141393509924578
aF4.154864663152214
aF3.5233733070755733
aF4.378106255730561
aF3.5999420438811214
aF5.08403651453021
aF1.5779882230657174
aF5.233802133854154
aF5.175076238844007
aF4.674373978412902
aF4.636148738009493
aF4.17575739636574
aF2.652192973515631
aF4.041785446249585
aF2.2654718673463607
aF3.5049723490261004
aF-3.2321816497052698
aF-5.124691128912099
aF-4.505932854540859
aF-1.5845275909884111
aF-4.1878846706908615
aF-3.0616240199945866
aF-3.7529241350794402
aF-2.984812073428637
aF-5.283988260709969
aF-3.562468437970968
aF-3.916200857364064
aF-3.385707217352662
aF-2.262462687805943
aF-5.174136166357972
aF-2.169926186383118
aF5.158183461364568
a.