(lp0
F-3.801759602312818
aF-4.587364778129583
aF-3.6206565016926007
aF-4.528512346858756
aF-4.8372250311897025
aF-3.465874349277846
aF-4.673791323592105
aF-4.33776103419452
aF-1.0234915510569667
aF-4.25439049611192
aF4.291911024112113
aF3.230003627789136
aF3.8190402103252667
aF3.24756432994543
aF3.1454079431160524
aF4.271245354487408
aF4.474463804551772
aF3.124004183315237
aF3.398246288828985
aF3.4547319852697136
aF5.289981559622811
aF3.8783016448515863
aF-2.6759479106986594
aF-5.862554148484191
aF-3.683957406147979
aF-2.753821764280093
aF-2.866920006427435
aF-5.34571754132905
aF-4.597909745645718
aF-5.126766638055873
aF-3.979235532254346
aF-4.476856708504701
aF-1.7989950635902052
aF3.050198990170009
aF6.036973163463851
aF5.191005021370523
aF3.635278057147676
aF2.3076389894443254
aF5.5995046083372255
aF4.445914929301024
aF5.918473256229558
aF3.412280758698359
aF2.8614601279233236
aF5.129967300957698
aF6.281999749283948
aF2.7985782621778474
aF5.552290631997902
aF2.801566481428509
aF3.5059627624603795
aF4.197309985139209
aF4.198325143069821
aF2.895937803632429
aF4.787496991509434
aF6.190308739065378
aF3.829384470912297
aF3.1582786610199123
aF5.056081323103671
aF5.118000348505048
aF5.5774200617556255
aF4.328869292366508
aF-3.4279068093786305
aF-2.502079179017003
aF-6.170680187484356
aF-3.5796401129568682
aF-5.186228320034734
aF-3.5439973880816633
aF-3.9765800356485133
aF-4.905109761466047
aF-2.903003045070192
aF-5.785300830594132
aF-5.317941382823053
aF-5.76925868480169
aF-1.901339057212025
aF3.6990761008363977
aF3.8766473591057053
aF3.658210070252795
aF4.483929799410387
aF4.701343898365474
aF3.6285520275042398
aF3.0844431088876796
aF3.970875091573708
aF3.119648563231458
aF3.802531554220509
aF2.343510806804211
aF4.3145902294802925
aF3.1125197703425878
aF4.494852712001942
aF4.200454239374575
aF3.808171759614281
aF4.246600582472077
aF4.109347595717457
aF3.8703982004433017
aF3.7158907791944817
aF-4.699789003631525
aF-5.796648712316151
aF-4.708559100102535
aF-3.5360879077877625
aF-5.3093983998627134
aF-3.780029053708584
aF-3.469607020640387
aF-3.865526447511757
aF-3.9290542623747826
aF-3.9025995733328465
aF-3.0058411175705375
aF-1.8838175034076503
aF-4.632230904392428
aF-4.157005770707196
aF-5.793832119035606
aF-4.678388244141676
aF-5.030510923136723
aF-3.6844713359000183
aF-3.7869321408648897
aF-2.8623680448811513
aF-4.12000671114588
aF-5.083802429848676
aF-6.044464121289241
aF-3.1715640635898734
aF-3.895773653780083
aF-2.352339111867133
aF-3.449840505187382
aF-3.822318654991356
aF-4.292712133344202
aF-4.09444945774168
aF-4.880763554091574
aF-5.237618188733136
aF-4.452583844136655
aF-4.167574442405186
aF-4.2970400919392695
aF-3.2199456356934615
aF3.3709665887107914
aF3.6118846505707127
aF2.848801856044193
aF2.627459330476043
aF5.22372224832601
aF4.05049105373871
aF3.150732279297685
aF3.082060640616097
aF3.3407692702738325
aF3.2762382920432884
aF3.7727862591352466
aF2.498890240440244
aF3.1112500144843045
aF3.9790229745828816
aF5.672411071575153
aF5.038593618600393
aF4.403121519489439
aF4.832762324438576
aF4.094085289838918
aF3.3574794465020523
aF3.5272615214958316
aF4.185613536454428
aF4.453975873888964
aF4.0152169534574496
aF3.837672727925137
aF3.021025260883815
aF3.1281089707768497
aF4.086724760543485
aF3.823099978208823
aF4.282883209731022
aF3.3491974254368797
aF-3.6745987389095247
aF-2.9707065719619887
aF-4.953789984414365
aF-4.8683763044440616
aF5.295534786200548
aF3.9459235525697687
aF4.206490901588081
aF4.912102164222763
aF4.419459878414427
aF3.3416228613341414
aF3.9846493235482483
aF3.208292097347866
aF3.360772454092896
aF3.520922702566577
aF4.216557025974822
aF4.926516775105488
aF1.9037684247836335
aF4.704964653013937
aF4.177478598940809
aF4.007377524098904
aF2.4776575725759082
aF6.084287660447503
aF5.101554651319506
aF3.8114349849680793
aF4.386335474962734
aF1.9026995784768403
aF3.8248677685061643
aF5.189155378441889
aF3.323590246102641
aF3.5501044291765065
aF5.1399443225369
aF3.5200237803006864
aF6.04169781406614
aF5.019721330311938
aF4.2819914321864365
aF6.792556463198047
aF5.138342886812054
aF4.467470635919904
aF3.425834696657989
aF4.022463531116246
aF4.86487656285596
aF2.5289459852376006
aF4.540456428979974
aF5.326672124475191
aF4.595426706408775
aF3.2049457810244752
aF3.100760295333016
aF2.589884128151039
aF4.9351545575757285
aF3.231706083101236
aF3.182530652292176
aF2.078509199314048
aF4.595627717893034
aF2.867115404069201
aF2.5953888791839215
aF5.1825767363739175
aF4.28812809366038
aF5.5500134276612085
aF4.87795653799137
aF4.29094155864216
aF-3.1575053748405066
aF-4.779898588444587
aF3.515170686311599
aF3.0965615667568245
aF4.118969321054121
aF-3.9405696486376303
aF-4.9855901159979785
aF-4.2354524962872615
aF-3.389594510800028
aF-3.694893818569892
aF-4.259665227420887
aF-6.646257736366282
aF-3.0513151444599416
aF-3.1121739044321797
aF-4.069930257460754
aF-3.3030252244706295
aF-2.848809498228815
aF-5.272581011836155
aF-3.7025353021092355
aF-3.0115840308879678
aF-3.3032767741103997
aF2.9693500387807585
aF4.67088951785595
aF4.261220254757716
aF4.5302492828861105
aF2.1966726873223896
aF4.146267766422885
aF-2.4748730862691213
aF-3.7989145939429134
aF-4.982302251574412
aF-3.6568601362230417
aF-2.2603856471553767
aF-2.866677283340958
aF-5.20045478470208
aF-3.296772094987458
aF3.33206067430111
aF2.2153882986161118
aF3.467034035450284
aF3.3618729596368544
aF3.3582204238452196
aF4.416252520008456
aF3.0742298565395947
aF3.921655781607215
aF4.2419098899043135
aF2.9715585446855597
aF2.1038310875190205
aF4.602736904255283
aF3.5958019234996774
aF4.63408370336224
aF3.3137965222270687
aF3.6853272693128054
aF3.393232893019193
aF4.3752121515669735
aF4.828643842542752
aF4.275689720636658
aF5.00752489523121
aF3.8236891519151994
aF4.178686682144254
aF3.941969407552235
aF5.184817334004357
aF3.031624793207705
aF2.676518954447742
aF4.608811387790838
aF3.787332233343397
aF4.325912966570413
aF4.1907339672468416
aF4.3026509223564915
aF5.774443403127426
aF-4.479393452792861
aF-6.447931837021235
aF-4.227019448118889
aF-3.3031619500833296
aF-4.285065796573185
aF-3.9050431181406458
aF-3.364089351707611
aF-2.7877030751985306
aF-4.228446321653529
aF-4.493245518052216
aF-4.227715565611187
aF-2.3227641685139035
aF-4.030541389066549
aF-3.565797033948639
aF-6.1090873206693725
aF-3.9765958673750985
aF-4.303490108641367
aF-5.400780218837473
aF-2.272503234637874
aF-5.096156259410098
aF3.605950884534164
aF4.130543728511636
aF-4.938641346973412
aF-3.0588040175608024
aF-5.30197773030844
aF-3.1270709461969672
aF-3.501365422685461
aF-4.072521196599866
aF-2.891274288272821
aF-2.746199239239137
aF-4.934418410648078
aF-3.42962641019877
aF-5.734524286032754
aF-4.472544492247027
aF-3.7266572574329895
aF-3.1583794768226086
aF-5.764662437018934
aF-3.6904928413698093
aF-3.4001433145311415
aF-3.703067328812652
aF-4.614861962849597
aF-5.006504899836049
aF-3.0872731451694704
aF-2.7770983936160913
aF-4.051367652671221
aF-3.4527179584017738
aF-4.3891163703667875
aF-4.192988113541993
aF-4.528923535524017
aF-4.629511475452268
aF-2.4426102853782936
aF-3.9115880775822496
aF-6.379553521735721
aF-4.220364623958658
aF-5.170545310539176
aF-4.622878045904129
aF-5.781004147512129
aF-4.653229353771481
aF-4.396380268854047
aF-4.5553948293747
aF-4.496284360060261
aF-3.424000513481655
aF2.94386332413569
aF5.038733615342336
aF5.236906169532595
aF3.686132332327398
aF3.3716284264762457
aF3.6536709436322745
aF2.1340288889419874
aF3.270631319028989
aF4.465860716969542
aF4.674892043902266
aF5.217235978029999
aF3.701810190184341
aF3.586196621320545
aF2.51108419304108
aF3.9841717295738355
aF4.208321315379069
aF3.2883784171377566
aF5.801011609232171
aF5.07729669054175
aF-2.9225984319002216
aF-5.2390637772218165
aF-6.035369290836696
aF-4.030024888470423
aF-5.458939089282699
aF-5.525983488320552
aF-3.885603541704415
aF-4.2840937990303285
aF-4.579202332895855
aF-3.2553179578951896
aF-5.034873645575776
aF-3.5307265139158703
aF-2.012031507686461
aF-3.915733684720356
aF-3.234364341168791
aF-5.380092970397889
aF-5.270303191972832
aF-5.429270454253249
aF-4.51375399835279
aF-4.765014456930263
aF-3.1683846556729973
aF-2.2472320797721768
aF-3.1926329305987764
aF-3.071832769885275
aF-4.890908610423653
aF-5.435586846233664
aF-3.580151289479096
aF4.024522197534638
aF4.403502956371993
aF3.852852417468374
aF5.39875875255292
aF3.933783283282463
aF5.933033749961952
aF4.51730313031148
aF3.8562833864708863
aF2.4830821614264473
aF5.45963374539933
aF2.375458146026834
aF3.463057498916389
aF3.9498141717448814
aF3.9275154805112282
aF4.951542271954894
aF4.404047963186618
aF5.39766867865109
aF3.752415364929938
aF3.5663155010631447
aF3.623593092253366
aF3.7210571961467593
aF3.1401710297540752
aF2.831058320003323
aF3.9829652677455565
aF2.9545158276617762
aF5.062359157631444
aF3.7186697541778617
aF3.8913303102718495
aF3.396497663575678
aF4.553131516342404
aF3.516081007904922
aF2.7367390369156634
aF5.838122197869865
aF4.356858588892371
aF4.530208277109301
aF2.786470461509867
aF3.5101787152553374
aF3.9848504062039716
aF3.8407484240690253
aF5.289105599217063
aF4.425791263646403
aF3.942883594228652
aF4.57940416239467
aF4.493003286188209
aF3.066322225847748
aF1.5998491695297483
aF6.909246978488743
aF4.803797860001844
aF3.814756770373292
aF6.717762450688252
aF2.4315414404547737
aF3.9085546434350125
aF-2.952755143862432
aF-2.9820446208631
aF-3.4225358414619222
aF-4.144446865583813
aF-2.671850700734086
aF-2.2805761524483255
aF2.2378396248354084
aF4.709196360032564
aF3.2758958445387774
aF4.6949402695498
aF3.3028732397419946
aF3.838099306775443
aF5.0379377060594495
aF2.7271659327562006
aF4.266686871920816
aF3.470091880760925
aF3.1679916066096956
aF1.7245613333369634
aF4.71069662885831
aF3.154272739966254
aF3.9356738932970248
aF5.383579638806281
aF3.3021156969946954
aF5.039024440157076
aF5.627313941246125
aF3.6938216279618574
aF2.955017298648521
aF5.442046570595141
aF3.3524509253252326
aF-3.7894075520624364
aF-4.371409120582938
aF-4.760465082188833
aF-3.598718532963651
aF-3.989714305316518
aF-3.6910243101601448
aF-4.022014493828223
aF-6.188203501674719
aF-4.115668988033618
aF-3.366236673458629
aF-4.622878878315587
aF-3.9918022684154058
aF-4.504179790927885
aF-5.015697117552116
aF-3.1388214889037096
aF-3.709466405832886
aF-4.421348640180191
aF-3.9459729811240143
aF-4.307407539440257
aF3.5727769778331697
aF2.050429933669073
aF3.859817664400949
aF5.094496677144065
a.