(lp0
F-2.574369522209474
aF-3.677891189527585
aF-4.5317608375754155
aF-3.949463388654116
aF-4.53149139178524
aF-3.5148592883217322
aF-3.5593171122875913
aF-5.188228585929463
aF-3.0197544332367476
aF-4.875412045000692
aF-3.5796441771846137
aF-3.69258541963117
aF-3.9236509826131414
aF-2.7721066874066187
aF-3.7727794815501055
aF-6.094587694217697
aF-3.9851358099311525
aF-3.9540544526283754
aF-2.2284444128528555
aF-5.683617719960219
aF-4.263141723355954
aF-3.3194176104406767
aF-4.301750751438664
aF-3.0311045349862034
aF-3.2119215262496326
aF-3.2170399943006878
aF-3.835199469429127
aF-6.196386743974742
aF-3.322516256594292
aF-3.828867707476752
aF-4.985618047369916
aF3.1831343261567913
aF4.217592599321958
aF2.8970491509753744
aF5.449979486739123
aF5.345800516282811
aF4.961940631752773
aF4.523384530853703
aF4.110924445199412
aF3.089700535421053
aF5.105211376741745
aF2.3877557556098647
aF3.4403746513843534
aF3.624389966410505
aF3.6096614881566174
aF4.297062056781342
aF4.172536866606291
aF3.823399201331608
aF3.872052318604786
aF5.217085004198508
aF3.574065889278515
aF4.354036745288401
aF5.024295055626122
aF4.6647611219013845
aF3.669701487508267
aF4.205110256349921
aF-4.820309855773059
aF-3.918645978139248
aF-4.677296178873164
aF-4.997220206677685
aF-2.899699574961092
aF-4.704857024400576
aF-3.435140628112794
aF-4.341618684917487
aF-4.498667272812882
aF-3.196238524834546
aF-4.233707918557188
aF-3.7669564311629795
aF-2.078737448470796
aF-5.429530859947978
aF-2.938157027990706
aF-4.069899849813973
aF-3.6412533967733194
aF-3.931557339060887
aF-4.193485722283712
aF-2.522798545480626
aF-3.3724541881567998
aF-4.516655770666321
aF-4.1543990327220675
aF-5.102909139196624
aF-4.5297633142579095
aF-2.9524946869455713
aF-4.809179815346841
aF-5.432040243170552
aF-5.576050727091813
aF-3.948892021568668
aF-3.3207886523293815
aF-3.9782245136156518
aF-3.762685624899181
aF4.489671481786235
aF4.483531837845359
aF3.7824942714928995
aF-1.5391441908334
aF-5.094079969731359
aF-3.6217434217815536
aF-4.99914820778657
aF-4.477547814633981
aF-3.9399600443847826
aF-3.838092992705522
aF-2.653446210820813
aF-3.866016680380434
aF-4.207149042041422
aF-2.508048815891829
aF-4.133144996632729
aF-2.7137255323184735
aF-3.6759196967142764
aF-3.517225355277633
aF-5.325718858616477
aF-2.979246350049811
aF-3.821258966703299
aF-3.820971733951784
aF-4.849544918191832
aF-4.417820675935574
aF-4.620651344603469
aF-4.985874429849163
aF-2.374892537455111
aF-3.8200141273279185
aF-2.910870892618447
aF-5.787230828352585
aF-3.2117369970475615
aF-4.1597047571555485
aF-4.5702869829597725
aF-5.032678489196229
aF-3.866006852544798
aF-6.083327488196543
aF-2.983748719207199
aF-2.526120010488157
aF-3.7389878923737903
aF-4.397294753781949
aF-4.555225762209025
aF-6.345033999539001
aF-4.661864322034599
aF-3.5044826768051016
aF-4.9362120400155245
aF-4.191740878520341
aF-3.92721501967098
aF-3.8123951846426536
aF-3.7997367447153856
aF-3.060509883590552
aF-4.839835766947117
aF-5.045405839767023
aF-3.832765869328021
aF-3.6758203566304712
aF-4.8556472321164
aF-2.9871803289479204
aF-2.8178085328721134
aF-4.452295497267191
aF-2.8388018380713165
aF-2.2334955719306437
aF-6.736150083925919
aF-4.402467944976636
aF-5.281176045492018
aF-3.1290398178728536
aF-4.21898535428606
aF-3.637811873510544
aF-5.520036452446813
aF-3.755425868623213
aF3.172577017093123
aF4.152706987785832
aF3.6516032078087814
aF4.8378617495974545
aF4.106771286354937
aF4.678586904270679
aF4.192776204877754
aF4.598522607353172
aF3.3099711841749837
aF5.022052403054775
aF5.233971675891477
aF4.4338354808388685
aF2.6788050911168906
aF2.6062663869519778
aF3.1415932845992356
aF3.5218773615477814
aF4.11506201259417
aF4.965331876309083
aF4.8940177173294375
aF4.264304346167269
aF-4.5962858190066695
aF-5.062246926472488
aF-5.556843430926216
aF-5.316181533548752
aF-4.985707728634915
aF-4.584236512724219
aF-4.427155682622756
aF-3.1316453797618284
aF-3.444844009772492
aF-3.5499977269166454
aF-4.922106597807179
aF-5.324205056363818
aF-4.075685789699265
aF-2.7780874663054385
aF-1.6657996231353205
aF-4.377753415991323
aF-5.720216558373639
aF-6.2971614372480005
aF-2.553965299406209
aF-4.369092736147606
aF-5.624088761639765
aF-4.600018848448574
aF-5.074510653301418
aF-2.862733292876012
aF-1.871734626090587
aF-3.054644512610322
aF-3.643988733086841
aF-5.122450106847182
aF-3.88285618906754
aF-2.289817101352334
aF-3.6843221010499865
aF-4.229650101931359
aF-5.744185496663746
aF-3.683634958634861
aF-3.937780345317275
aF-4.047204336444325
aF-3.5735027879072674
aF-4.389040786711738
aF-4.294825769968621
aF-2.741425839833445
aF-3.8647859244904064
aF-3.2307982922053387
aF-3.348723810010995
aF-5.248212061502339
aF-2.408457324455525
aF3.9970127872126118
aF2.986941200859494
aF4.162810708425038
aF1.6059621657959742
aF3.1079560172642946
aF4.7957086236080535
aF4.7927056295330965
aF5.20511436462883
aF-4.037459325319425
aF-5.7533953918066505
aF-4.138686481730565
aF-4.510220636326093
aF-4.759966662212722
aF-2.580939062266102
aF-4.376627865400554
aF-4.162177113295849
aF-2.743048134704531
aF3.3195281082235155
aF1.424264583752743
aF-4.9939965101775154
aF-4.983771537368156
aF2.944804100233214
aF2.006028890559638
aF4.4651148123987054
aF4.613925866198038
aF4.277155540772742
aF5.772255701499267
aF4.774098144958293
aF3.231579322298459
aF5.378875050812083
aF2.8934454053855516
aF2.52656839578633
aF3.378067315799779
aF2.8371601249913114
aF4.256504769664566
aF-3.294808407296686
aF-2.8051153862039735
aF-4.300940616071186
aF-4.57616590036302
aF-5.396178673197163
aF-3.427891271763954
aF-3.9317127627583193
aF-4.201210053267332
aF-6.319341177050539
aF-5.338768330057362
aF-5.171953654312333
aF2.4569188226602727
aF4.749401943926586
aF4.940658525584154
aF5.217433648391493
aF3.107935075850718
aF2.3761087838018096
aF-4.478363436371583
aF-3.695472830283335
aF-4.215034154156503
aF-3.353246432917389
aF-3.622154915694051
aF-5.25116826386805
aF-3.8477702292039297
aF-4.396310939495846
aF-3.194890303935246
aF-4.874599027145422
aF-4.260814636425173
aF-3.5705947302509564
aF-2.9273316297911154
aF-3.238954389079624
aF-4.400385118764592
aF-4.492367342068013
aF-3.3954976769642946
aF-4.821795246686518
aF-4.422747986349737
aF-4.33389370356799
aF-2.7634689634689322
aF-3.2908472732973255
aF-2.8088734289183286
aF-2.6883774323943603
aF-3.389581602833711
aF-3.7964958733050937
aF-4.624510122188573
aF-5.380038221545029
aF-3.812614157837145
aF-2.6820674088036225
aF-4.836345680259074
aF-2.0557815403869717
aF-3.992284661567063
aF-4.33253271020638
aF-3.104471567786378
aF-5.192397529146953
aF-4.809599901155373
aF-5.303103781846912
aF-4.569000779991086
aF-5.049625146104651
aF-3.954842007813576
aF-5.519636562051839
aF-3.9124784267297827
aF-7.077570081077882
aF-5.671513548005194
aF-2.2430917233563434
aF-4.581445753589473
aF-4.971701339165308
aF-4.212031808500192
aF-2.910115058886582
aF-2.019972980425396
aF-2.9956635664171665
aF-5.901695276825676
aF-4.4680645859630745
aF-4.682120714940898
aF-4.046585565598386
aF-2.8022098005987677
aF-3.078077938641659
aF-4.994799871355485
aF-4.03038764164055
aF-2.2385858507185166
aF-2.6616832529316072
aF-4.52068733607158
aF-6.363003073912459
aF-3.7387061815051794
aF-2.328286673018256
aF-5.312305178737954
aF-4.116852776163195
aF-2.7409319780223527
aF-4.4902547968261
aF-3.6574352380988526
aF-4.471328512461067
aF-2.5709284740020175
aF-2.822090522766546
aF-2.0075280204786634
aF-3.614669702267825
aF-4.413947231766065
aF-4.049799314600885
aF-2.7244702453242375
aF-4.099362459137389
aF-4.474048301345376
aF-3.455852830916046
aF-3.801627996018632
aF-4.0637974818984
aF-5.68708970380339
aF-4.0591071677723365
aF5.345940924970345
aF2.773413833903464
aF4.001335560423846
aF3.092162284615594
aF3.994109721888612
aF4.80846510882695
aF4.745230432380747
aF3.7567852813204645
aF4.340105767893118
aF3.3780832021804077
aF4.131324097566806
aF4.702511750433336
aF4.062995577850543
aF4.614037932475958
aF5.54072468894619
aF1.6752432282783651
aF4.153132222925445
aF3.295658808656645
aF3.321349991692221
aF4.565121082093571
aF5.698095784602183
aF4.312909120308495
aF3.551336416675515
aF5.249668211244106
aF3.7355970259617393
aF4.588433397041939
aF5.633757790460093
aF-4.516105096012635
aF-4.543930499119408
aF-4.351955261330106
aF-3.6240345292579352
aF-4.896936290104643
aF-3.3792955767333046
aF-3.855695385683434
aF-3.5059793508793833
aF-3.2797871334655317
aF-4.765890715393021
aF-4.354345948521759
aF-4.769012231668759
aF-4.1895432101856205
aF-3.263434020813309
aF-4.260286870395688
aF-2.8908376434921594
aF-4.395398790064654
aF-0.5632932737357286
aF-5.729489463395462
aF-3.4445797155807996
aF-4.836714876282527
aF-2.671469981573817
aF-3.9590664932060764
aF-4.434874234716864
aF-4.491227964220772
aF-3.7774406894893455
aF-3.5009798987012553
aF-3.245406634923965
aF-4.2442802500462085
aF-4.077843259855352
aF-3.731466399186681
aF-3.768220853289108
aF4.548013625104775
aF2.7975444485626912
aF2.4919508206790373
aF3.3994823834906596
aF3.711036805426187
aF3.6683554734482446
aF3.230079892009865
aF5.2209769898495875
aF5.4427094975289965
aF3.64936979723446
aF2.8091006936696874
aF4.326331462072445
aF5.749436544602576
aF3.0394975397175066
aF3.6940600613715735
aF5.827089297590089
aF3.847108156614435
aF4.213107692229397
aF4.261749872656408
aF3.6410729773153854
aF2.63821627899746
aF6.297207507578904
aF2.22143299261132
aF3.5531255274888545
aF2.5090548318772985
aF4.754596370033191
aF3.268157808802619
aF3.142205041141777
aF1.4750175263268086
aF2.8281038812382038
aF4.265466314964525
aF3.316645890412543
aF3.2651581289365996
aF3.155408353375271
aF3.054251473306707
aF4.028358558094355
aF4.841205431673913
aF3.651878269639841
aF3.915184621363504
aF4.222541649409537
aF3.5913871582256767
aF3.6312142230520297
aF4.733120500464263
aF6.2125292981686115
aF-2.924779860005654
aF-4.9050240524940625
aF-3.978382370425757
aF-3.005480621722918
aF-5.434276188470387
aF-4.246350095135562
aF-3.463689707371388
aF-3.133002782826699
aF-3.281381146398759
aF-4.7999330109883225
aF-3.602864444037822
aF-3.9643665429511783
aF-3.76333241276461
aF-3.000138820267932
aF-3.810890345518274
aF-4.137682533657806
aF-4.998242911874256
aF-4.303352785170161
aF-3.2157965111002693
aF-4.217202075712702
aF-5.197853952333482
aF-2.431598151033229
aF-2.616046395256836
aF-1.523916129559188
aF-2.3978830116893177
aF-5.8532251200886485
aF-4.878457248499613
aF-3.7787496716507394
aF-4.171039223201792
aF-4.508319191938834
aF-3.4780227231875642
aF-4.978697873578314
aF-4.555504243979363
aF-4.362251822405018
aF-2.200424773857175
aF-4.908725820712193
aF-2.9941229842657875
a.