(lp0
F-5.801668310495643
aF-2.808667737561942
aF-4.423080770281315
aF-3.495833004202672
aF-3.1354646544338625
aF-3.883406472058903
aF-4.949208873366125
aF-3.068951828818573
aF-6.510990289896041
aF-4.643680471446761
aF2.447492020098016
aF4.22504555456054
aF3.544771803024615
aF4.382929459380707
aF3.918353091114813
aF3.4166811179194614
aF4.405496096543359
aF2.1263525393227836
aF4.810125022515269
aF3.8118728196401923
aF4.44436567938137
aF3.6028083452079387
aF4.467291825401406
aF6.33520166774333
aF3.4058539612602603
aF4.344539714775404
aF2.9753101003174676
aF5.0346941421886555
aF3.6101862270994234
aF2.714788460001806
aF3.137412036805191
aF4.9479877088984185
aF2.8299882877932223
aF2.6787104240752133
aF3.770398910756542
aF4.337387656101025
aF4.260166548632867
aF4.54604026020393
aF4.864975183180215
aF3.9561094086460726
aF5.149386113450418
aF4.013278094956579
aF2.967244618396041
aF4.116011007305774
aF4.789958695218561
aF3.1873438297994543
aF4.434301123402873
aF2.627294489796583
aF3.2410024133824202
aF5.1306358119320405
aF5.117848973315274
aF2.286269970986245
aF3.781944680252335
aF3.2883399304026217
aF2.767110856468921
aF5.926673647599164
aF5.007040186887992
aF5.295547218000971
aF5.937340091362911
aF-5.690329832348905
aF-3.4319842122753217
aF-3.630356559148189
aF-4.355184911399734
aF3.9977730286508883
aF2.7113682443687557
aF4.41202030464257
aF3.8071610152647763
aF4.35860947354496
aF3.3556724753999694
aF1.5598342623050359
aF3.7042477250540884
aF4.055482517639407
aF2.946753885450116
aF4.328853258388916
aF5.3103340050181975
aF5.180122353150888
aF3.5757860416591676
aF2.1733319095696872
aF-4.905976565282842
aF-2.7013378237978367
aF-4.499953256049945
aF-4.984254455292136
aF3.634881360043363
aF5.116660793919469
aF4.607857130275762
aF4.003492213377019
aF3.4070849445902125
aF3.615708922518725
aF1.7869328964955722
aF3.959278788643817
aF5.552925483802659
aF4.226412822490488
aF4.291393212737432
aF2.230902767051222
aF4.769540704889583
aF4.557553297008671
aF3.469744766618136
aF3.616585107516252
aF2.74101714755554
aF4.452189680204386
aF5.405205152871321
aF3.653059870178478
aF4.7767982458887674
aF3.3825488794493257
aF2.1950906918849427
aF3.476096921233225
aF3.1708871004057038
aF4.235422265231979
aF-4.776598211771772
aF-5.4819791437549465
aF-3.0685230530883603
aF-4.90769161762813
aF-2.6483963841681666
aF-3.9450010287785457
aF-4.0283123214944645
aF-4.976114124524079
aF-4.407883535207893
aF-4.077016096641721
aF-2.861958658376921
aF-4.263095002372645
aF-2.685731537595142
aF-3.202304794419683
aF-4.95288472366815
aF-3.8589984013614513
aF-6.578615801659469
aF-3.016951970239892
aF-1.9492434222365707
aF-4.014819478702192
aF-2.2842168208139086
aF-4.113892999158153
aF-4.470076019363487
aF-5.069004897851595
aF-4.867648111268971
aF-5.786322680019039
aF-4.575586456415481
aF-4.6260872711557806
aF-2.314862774089667
aF-3.9790399765993114
aF-3.0722314513576796
aF-3.2500525416220514
aF-6.205017057790672
aF-3.206021911835776
aF-5.063157714225976
aF-3.2177877076343977
aF-3.3860732071802033
aF-2.1016010451766656
aF-4.436898646586874
aF-4.814566559495567
aF-4.162284094713465
aF-5.121350396269575
aF-2.2248968250856502
aF-4.777533144191452
aF-3.5968503637820244
aF-3.5403432602248945
aF-4.627257009492567
aF-5.127808191947497
aF-4.232299189875992
aF-4.185048743904292
aF-5.465712500010292
aF-4.8463224844210675
aF-5.185922757878665
aF-4.628707874007977
aF-4.7991723466010985
aF-3.716409137679051
aF2.6969392739174047
aF4.059358307768449
aF3.7013621028095667
aF5.403268621139522
aF4.851486890040191
aF3.3860641764141923
aF1.4911701705716967
aF4.764501745673249
aF5.449628875102715
aF5.699213378783087
aF4.147799323653399
aF3.611638683773813
aF7.186788816221913
aF2.6258918983982307
aF5.472755761992103
aF4.877898095983784
aF4.0970740762616344
aF2.995618999037144
aF3.9119937530338023
aF5.548239723229488
aF2.5271257109711303
aF-3.89392634180416
aF-3.9680547266664057
aF-3.2630987430510743
aF-2.931654550841622
aF-2.2171379221231415
aF-3.3697932426130577
aF-4.658592905890856
aF-4.263647571195994
aF-4.488451063098192
aF-5.155536885311635
aF3.93302662687682
aF3.3109903323675414
aF3.3702456903409685
aF2.625761599359649
aF2.9038763443306688
aF-3.6438308719024435
aF-3.7966596743369654
aF-4.718119001131004
aF-4.201729290018941
aF-4.201840455116528
aF-3.87090290230082
aF-3.0284918875448756
aF-3.7069815637191628
aF-2.6968365177039275
aF-4.163656804236946
aF-4.772487782388314
aF-5.72812405046307
aF-4.911799548449702
aF-3.7004809270350307
aF-4.583893990057133
aF-2.4885393497674766
aF-4.1422530918534175
aF-3.6598579810636145
aF-3.9279253527706075
aF-3.8470291453063683
aF-2.4521460758484306
aF-3.220788475488958
aF-5.295666872070461
aF-3.220922055472515
aF-2.4381751430128573
aF-5.018930559227883
aF-3.935129808199794
aF-4.297583554685398
aF-5.339308829782474
aF-2.560483261254936
aF-2.254704687584044
aF-3.8727215094507264
aF-4.735592233983762
aF-1.6936714260414036
aF-2.8647718238595354
aF-4.419078687114847
aF-4.140859406246485
aF-3.7940405690712806
aF-5.300646613789121
aF-4.807895306620027
aF-5.485745304640279
aF-4.621659386628023
aF-2.4905241664063458
aF-4.039328796210434
aF3.9955214513589716
aF4.722213378458867
aF3.996275956530891
aF4.664016517383748
aF4.607901441042539
aF3.576168741883902
aF2.045629581371657
aF3.435954824145975
aF5.373358950260773
aF3.89905573179774
aF3.950931240656317
aF3.1774553478687717
aF3.7901040087198563
aF4.384421745920967
aF4.233430156410158
aF3.544110100892865
aF2.975645875043612
aF4.4890739406339
aF4.383940577125276
aF5.870584491767077
aF4.077634536524352
aF4.76225405455146
aF-3.1044831853429775
aF-2.969646323692899
aF-4.332187209087278
aF-3.833078327183216
aF-3.442709135467939
aF-3.43597971215405
aF-3.5107208428723413
aF-1.8515738282159484
aF-4.35639807721425
aF-4.316241838223233
aF-4.450418664489149
aF-4.136040356207102
aF3.918111266290018
aF3.698348385264066
aF4.708911047360733
aF-5.026437167857174
aF-5.324338817636592
aF-3.1517161477176754
aF-2.6702097737851744
aF-3.036472723743211
aF-5.2953705079523825
aF-2.0732908465214566
aF-3.291484866931172
aF-3.2515994853353876
aF-4.6494460609853245
aF-3.7829748516865376
aF-4.699643141966216
aF-3.248826489832737
aF-3.7556029335388796
aF-2.944903529869479
aF-4.629600601499484
aF-3.392264039619624
aF-3.062064458485689
aF-4.191403450452635
aF-4.872114283707364
aF2.463076518254616
aF3.4750103936233496
aF-4.227750570849581
aF-2.422903228724557
aF-4.349909965108839
aF-3.107416781333429
aF-6.145705757958529
aF-2.0752470797527436
aF-3.051141278262218
aF-3.0528994595221253
aF-3.8957539777916685
aF-2.508126280421763
aF-3.0990271676608048
aF-4.61354119322457
aF-4.087282574816966
aF-5.223813484458655
aF-5.06468203311561
aF-3.6465504836366622
aF-2.6083279168836313
aF-1.8584960653105562
aF-4.554201122159234
aF-3.8508170113344677
aF-4.1272493514109705
aF-3.9760488824076914
aF-2.5432832376886787
aF2.4270031778158554
aF3.108447284192769
aF4.942521360676903
aF3.525060878686057
aF2.918670830374319
aF4.745237092957465
aF4.865913222395919
aF2.641994677937679
aF5.711373995090787
aF4.517758142191006
aF4.582508115535574
aF5.687691775183394
aF2.0990908239591697
aF3.091100944186879
aF4.136355358274841
aF2.935460378065188
aF4.921992409409395
aF4.259081352854771
aF-3.1572326182871575
aF-3.5726360551922642
aF-5.252042794940092
aF3.932588416532411
aF3.5822090681296928
aF3.5383710646296107
aF4.206985995176384
aF5.3730838800761305
aF5.177596453146461
aF3.425358903201456
aF4.4224844699665065
aF5.322142422778979
aF4.721836430537218
aF4.969454281835023
aF4.568932695964457
aF4.7831646960828476
aF4.006843291937795
aF2.0313227150608975
aF4.346821905134528
aF4.902463762618848
aF5.390802830119526
aF3.792421900292742
aF3.2283890139192093
aF3.838251611696975
aF3.18367557628876
aF4.777760831136654
aF4.663905537783043
aF4.465113016125372
aF4.013444910814695
aF5.521108722074194
aF2.3678059497548656
aF4.032812245089189
aF3.163757986901115
aF4.404167189612243
aF4.283646967283958
aF4.375989206935176
aF3.266457474927279
aF4.508276787142854
aF3.980474664920904
aF6.02213033994563
aF5.090873754714023
aF-4.64653059431568
aF-4.292010404883419
aF4.521120189389562
aF4.757869221690314
aF3.227389927141086
aF4.624468449296966
aF3.541801401998628
aF2.8535756888486787
aF6.255215685212457
aF3.040467776030933
aF2.138282367419225
aF4.39313882140109
aF3.365571427071851
aF4.361955213392151
aF4.099914418454085
aF4.211926844896721
aF5.892067250370356
aF2.9884044775037086
aF3.2260844364910626
aF2.509230781390343
aF4.352810830072825
aF5.047253708291748
aF3.3016164955881693
aF6.5466636884189455
aF2.381277347896762
aF3.5784034114830914
aF4.083274013104408
aF5.0496268104704125
aF3.7434619866502965
aF1.6467285490096666
aF4.017869531105385
aF4.433084526407654
aF4.018995426877534
aF2.681270068055186
aF4.610568718293592
aF2.1843583420185606
aF3.0963053366443694
aF2.6985010354066903
aF4.95372942254794
aF3.6675453282944743
aF3.927296812732836
aF4.3559987154207995
aF4.479037643855696
aF3.7410575882727364
aF5.661198410667529
aF2.849936770875515
aF4.294798866564518
aF4.007294739220629
aF4.098639651222689
aF3.081690143262005
aF4.282631092114686
aF4.713093451945854
aF2.7534664970871567
aF4.143436972809313
aF4.2464738113785625
aF2.9749694469841215
aF4.077420603675041
aF3.062237490699066
aF4.789712712058039
aF4.396290056466869
aF2.174193709020675
aF6.64567763100927
aF4.601657585952913
aF2.8400289825127665
aF3.3162243980360246
aF5.228724452071548
aF4.370400744458846
aF4.70356827730873
aF5.102778508245188
aF5.815069721306743
aF-4.867154876154489
aF-4.853220740775739
aF-3.998021700698649
aF-2.9784701822469994
aF-6.383039329926235
aF-5.170879275769752
aF-4.159574901285347
aF-3.555237253981675
aF-4.729956961078282
aF-4.83822374249544
aF-4.90932153808591
aF-4.599308025054907
aF-4.54406786047914
aF3.0445755441263107
aF5.58157223401804
aF4.556750091830056
aF4.601689851306623
aF4.288041395911042
aF1.8562367530449948
aF1.0596060632555884
aF6.136323743688916
aF-3.8492114723743667
aF-3.996172173461263
aF-3.3229873318857805
aF-5.048693860628461
aF-3.639296229490201
aF-2.7878322132680378
aF-2.8031256717012725
aF-5.874048707502172
aF-5.2105688149862
aF-3.6116452579951996
aF-3.9597682045584603
aF-3.7137836097891874
aF-4.254788564198846
aF-4.284847944572012
aF-5.278689822814424
aF-2.6938167207396972
aF3.302400746880453
aF-4.7230904836167245
aF-3.3748972825378116
aF3.51974324687228
aF3.938599996294353
aF2.5642904669326043
aF4.716526074585355
aF4.427065739630574
a.