(lp0
F-5.598151052446299
aF-4.444473674669795
aF-3.607862191890669
aF-2.6376696541856157
aF-3.281464696180583
aF-1.9464005456606852
aF-5.064070606780633
aF-1.101180810205629
aF-4.474659638860853
aF-3.9964196314075444
aF-4.000983367118751
aF-3.472625513623673
aF-3.308100238898465
aF-4.675544604357505
aF-3.4288890580961127
aF-5.562244369619061
aF-3.7701619035282827
aF-3.146712357925446
aF5.480685496376602
aF3.1585722792448285
aF3.2623990819418043
aF3.374334408025031
aF-0.9747488165198885
aF-1.6827504418348007
aF-4.350505222764155
aF-2.708623948759067
aF-3.9586796507745037
aF-5.864666580650832
aF-4.685476633907697
aF-1.934071660351766
aF-3.9955596235057333
aF-3.5158366488855632
aF-3.5020490359493244
aF-5.093762930326157
aF-6.448840736721188
aF-3.2289470935028577
aF-3.7702748716438395
aF-2.0303289903606103
aF-2.896658815529534
aF-3.3854616308922707
aF-5.026530098664353
aF-3.945024734369597
aF-4.1407688361807455
aF2.6194343757438565
aF2.5580880125045518
aF-3.9880465832829026
aF-4.399022457192974
aF-3.824602528269168
aF-4.277278864015199
aF-5.061268688048504
aF-4.537686704306486
aF-4.429102127105691
aF-4.734608801307391
aF-2.8159909722513676
aF-3.927313675923612
aF-5.084707314840048
aF-4.102430479260824
aF-3.919666022219057
aF-4.140828624836235
aF-5.318967299891383
aF-3.3484552574262185
aF-3.3133520449090756
aF3.512307931542362
aF-2.421830892985418
aF-2.851059994450323
aF-2.0018181526127146
aF-2.357485764061248
aF-2.615518467215896
aF-3.6165185615745257
aF-4.335518228953697
aF-4.843624839075921
aF-2.1795102871563534
aF-2.991331265786727
aF-5.484188922520886
aF-2.9564903176474164
aF-3.079380491131423
aF-2.319274567499885
aF-4.7582800001452945
aF-4.129710760878159
aF-4.413367999439933
aF-2.550211219035332
aF-4.3735992561320804
aF-5.341489196078683
aF-4.995948338477497
aF-3.71994508195577
aF-4.002218740919772
aF-3.9358977897614316
aF-4.150926303150786
aF-3.563433178092327
aF-3.5589194560598134
aF-2.891325021087443
aF-2.530006080970792
aF-2.815869932919694
aF-4.30201890797302
aF-3.6533831199912217
aF-4.259206749725892
aF-3.7599294367012592
aF-4.0062282647940854
aF-4.603698848476706
aF-2.825967830655139
aF-3.568420974731535
aF-3.8135881849170175
aF-4.3577945288963935
aF-5.14574122040761
aF-4.774206762278913
aF-2.728811419376855
aF-2.958564814484232
aF-2.8507140301651397
aF-4.678793076126429
aF-2.4342061860963695
aF-4.476543740776675
aF-4.276026403642641
aF-3.33230456814254
aF-4.086341110844494
aF-3.9111570591451703
aF-4.43336840833407
aF-5.348646723528494
aF-5.928704859821172
aF-4.117559843528414
aF-4.666983958470501
aF-5.697383770053515
aF-5.589518868984557
aF-4.001567456677043
aF-4.137264835291494
aF-5.674132263734136
aF-3.1958957764945874
aF-5.584774976002601
aF-4.402991306515421
aF-4.812796341253824
aF-5.6478189545419015
aF-2.8602033355461214
aF-4.8302852319599
aF-3.4543881259186495
aF-3.2389429055171735
aF-5.605123991330565
aF-3.5074097451687356
aF-4.464118423828997
aF-4.784313431393224
aF-3.7109926662994646
aF-2.018145898935411
aF-5.406197516775699
aF-2.1234080196405873
aF-3.6234324556322854
aF-3.000663336403031
aF-5.85223740408164
aF4.6858084324953495
aF3.5836337669159994
aF3.4681033653356526
aF5.702094704733692
aF-3.911782275423441
aF-3.147254657915889
aF-3.7078047542957226
aF-5.731620046108494
aF-5.790147025879864
aF-5.628405460842492
aF-3.704225774240128
aF-4.760954331738645
aF-3.00459603855543
aF-3.660207510839433
aF-4.920546483706426
aF4.412921244808568
aF4.8627012170013355
aF4.573617989930386
aF5.7119008506991475
aF3.8635562979492906
aF4.705933296176705
aF5.273322266041946
aF1.7730563621878157
aF4.2809339023878605
aF5.395032926438731
aF2.800396938044067
aF4.999394764583257
aF2.0203044555106437
aF3.1828624939006627
aF3.9613150629010923
aF4.851361832212064
aF2.0414302133884448
aF2.496601826452629
aF3.6618987648958736
aF3.900345579493136
aF5.052135320412069
aF2.661512814603675
aF5.029831286597295
aF2.8730346367916724
aF4.362830833622138
aF4.716621211768473
aF4.572497474833855
aF3.339059469588977
aF4.2153103688755955
aF2.8223484319109358
aF3.3833794373230717
aF3.6237228987026464
aF3.206529204393012
aF3.470759512986689
aF2.6239518737928047
aF3.713148433646951
aF3.508217484651882
aF3.4795536040452975
aF2.3885811888721613
aF4.392321047615901
aF3.886664846146969
aF3.313247555715465
aF5.464879664484241
aF3.788330154131652
aF4.265522764882308
aF4.749485577695177
aF3.782614987446207
aF5.138750222943809
aF5.545118445466232
aF3.484503482147071
aF5.488640442834168
aF4.855291663357902
aF3.0721989477982925
aF5.3693936846124215
aF-4.396508417516426
aF-3.8321734065559436
aF-3.702112859117699
aF-4.244861730459146
aF-4.11610901495245
aF-4.67451509447336
aF-3.228089040198017
aF-4.473455297927829
aF-4.235442572165148
aF-4.639435555091248
aF-2.325904696857996
aF-4.645604104503138
aF-3.4203969765423903
aF-3.5094342371600624
aF-5.470764306366383
aF-3.87227726723691
aF-4.2762957957680765
aF-2.4741089135708574
aF-4.530123824590943
aF-3.105368897716442
aF-4.003823439426949
aF-5.0356619489221215
aF-4.118853099163438
aF-4.796711415334934
aF-4.023739103271722
aF-3.6182631463784047
aF-4.216460663670938
aF-3.1960242736826543
aF-4.206808330287132
aF-1.6665436242836864
aF-3.6685883043804064
aF-3.645408181927068
aF-3.491350387447983
aF3.849347430484869
aF4.046999588696236
aF4.27663425448076
aF-3.3619570507119723
aF-4.9357203603205395
aF-3.4811831918561125
aF-5.265349857703497
aF-3.6848845823187943
aF-4.689738563943457
aF-1.9626377559831667
aF-3.2757333032501226
aF-4.698003003226518
aF-2.986070724678127
aF-3.070232604420762
aF-3.0325994108308008
aF-5.237193361338466
aF-3.802826501137168
aF-4.34870107124491
aF-2.9536792098941596
aF-6.146262769783565
aF-2.57689563115925
aF-2.5765903574203355
aF-5.957880277836693
aF-4.8567876405491965
aF-5.240789925809676
aF-2.238555889186454
aF-4.378483626070571
aF-3.3947148685607544
aF-4.001248693048819
aF-2.9353983756819177
aF5.169915289340503
aF3.2283405512691754
aF4.082146713876793
aF4.8690578182747
aF1.8130696075930959
aF4.025438004143983
aF3.3531508325692627
aF3.4989330289919787
aF3.242723381550514
aF2.977407006755776
aF4.212923413901215
aF4.07841305716722
aF3.312497806159227
aF4.650201233336982
aF5.288822036822183
aF4.520333956854372
aF3.942011761232054
aF4.935445436353035
aF4.670660558828504
aF3.2250447590332687
aF4.878370728592502
aF4.470640439016129
aF4.143635564066972
aF4.507384648194415
aF3.4536149863991374
aF4.087825026588852
aF3.916293957816497
aF3.061480870460443
aF4.599020420415469
aF4.368652725814676
aF2.6156227027422077
aF3.8537469686891233
aF4.565768350215306
aF3.4539721088932045
aF2.2794880153003296
aF2.6630472433196024
aF1.9644922629113863
aF3.7056756680759704
aF4.235211907136372
aF3.4639911976871245
aF3.472237655269481
aF4.819627925538886
aF5.855314329673739
aF4.606063417485861
aF3.1212881885973247
aF5.513498118763367
aF3.3994215885188
aF3.7551799335496456
aF3.61272056324337
aF4.517419490436142
aF5.818252101406553
aF4.693851263728854
aF4.188558837776411
aF4.15043781506288
aF4.374294808714037
aF1.6943991595153407
aF5.758602146668116
aF3.837786746609913
aF4.136777605606325
aF4.332193975681979
aF4.88982768512687
aF3.580508941967487
aF6.078491480236831
aF5.036049744607971
aF3.5238945619252187
aF3.690121789967459
aF3.003225152610089
aF5.277503673929247
aF4.881012607512307
aF-5.629611688515725
aF-6.014251631717347
aF-4.8672058726906595
aF-3.996393265771975
aF3.967648216815503
aF3.7873893013962903
aF3.668930172362318
aF-5.087033810846781
aF-3.7134639979531188
aF-4.332153583057782
aF-4.243578215084852
aF-4.981295686471681
aF-3.1717044562109233
aF2.2837394727966056
aF4.311161343374969
aF2.5165036965158825
aF4.787283941860951
aF3.272378648231692
aF3.778368376239976
aF5.100906495695018
aF3.054211078973316
aF4.046403685479266
aF2.4148148328043506
aF4.602721973455427
aF3.617943470530406
aF3.3233888152086504
aF3.8942686558171458
aF-4.479651358695483
aF-3.395161776449285
aF-4.08494383337903
aF-4.385410733659011
aF-4.407442030984047
aF-5.038934329002046
aF-1.4483266493670182
aF-4.16416767245714
aF3.2477720789545343
aF2.731672807965966
aF2.905334169065749
aF5.591381283427224
aF2.674004566030181
aF4.206149690472183
aF4.32155369843271
aF4.635548065018482
aF3.479654532752151
aF4.757525759380822
aF5.56796090616857
aF3.5729751538214862
aF2.9080204937700467
aF3.4446590781419144
aF4.790521076493903
aF2.909297300437497
aF4.134875761336935
aF-2.502292977945502
aF-4.893282211528098
aF-3.636994305837247
aF-3.2481379308706355
aF-4.145221732478274
aF-3.7878906122055334
aF-4.627213981667221
aF-3.308971729145698
aF-4.105485928488489
aF-3.8076315455953824
aF-4.112691995722758
aF-4.311123244251769
aF-4.093721057317906
aF-6.958837800564688
aF-4.193826243063338
aF-4.9500036826866465
aF-4.306313790568069
aF-3.995371437014086
aF-4.90759873658578
aF-1.834901920649488
aF-5.293187946296654
aF-1.8778730158150916
aF-2.34315554798746
aF-3.428744760095586
aF-4.023032124052186
aF-3.470259297033274
aF-5.546579606268444
aF-4.067184819350456
aF-4.163943673500046
aF-2.025227628457462
aF-3.7940143706236387
aF-4.179403209964625
aF-5.31785551752831
aF-5.047547989626325
aF-5.138573702765941
aF-3.3808843431398508
aF-4.334346286575008
aF-3.146712219374141
aF-4.21820207433697
aF-4.304811727646623
aF-4.407321217661622
aF-4.631275651287112
aF-3.3580960654910537
aF-5.211220714513488
aF-3.0478746206303717
aF-4.03828341537473
aF-4.166565957306262
aF-4.278200366756359
aF-4.236344606122444
aF-5.4644324422161965
aF-2.690473807474455
aF-4.2365592967881485
aF-4.670675328459058
aF2.6056118962806822
aF6.207928558012395
aF3.620762930029078
aF3.527254600730008
aF4.556773685553379
aF3.6288173775500288
aF3.2793525027593304
aF3.3729186807978087
aF2.5937031357573055
aF1.9312195916684192
aF4.416888582840093
aF3.8260374305614446
aF3.9659736923317217
aF3.187714486742965
aF4.677585143066013
aF2.592046215813652
aF3.9807033983688362
aF3.1638716851620825
aF3.430550945895214
aF2.6414466344421563
aF4.361596861983434
aF-4.425881748415799
aF-3.8283976445221235
aF4.97813472389169
aF6.175171837840965
aF3.7942631682070487
aF5.122742917567423
aF3.758503202440517
aF4.552734253750104
aF3.9460436911091605
aF4.690089384417826
aF5.058088775706139
aF0.8894331520763359
aF4.5161458488045865
aF3.485348472548486
aF4.9550631375495495
aF-2.7605198184711535
aF-4.91907655203042
aF-5.1539703641228725
aF-3.362284655784533
aF-4.1735020630800665
aF-2.5140702699167994
aF-4.643272233892485
aF-3.3622772513590236
aF-4.158610200105095
aF4.718149667834249
aF4.41700922144135
aF4.012892148814531
aF3.4448867084198445
a.