((lp0
F-6.954829660366822
aF-7.498539476100296
aF-4.851326913767578
aF-4.144027365487824
aF-4.792790092027351
aF-5.346493656446552
aF-3.7693057639063183
aF-4.369610420218008
aF-4.734094556184198
aF-6.644377743050863
aF-5.392306334725436
aF-5.441039761261381
aF5.107065588759778
aF5.098686186775356
aF5.7427664761086366
aF5.625046749595284
aF4.089335228585159
aF3.7942883984793223
aF6.02562453156289
aF5.656774019308806
aF5.601619251210688
aF4.979651150560892
aF4.219442977681572
aF4.275292552721255
aF2.820791978081624
aF6.198092940720823
aF4.977878203432287
aF3.8688240645654255
aF-4.540454143592103
aF-3.543703486451839
aF-5.743947379468249
aF-2.5351784206193635
aF-3.7956442079503985
aF-5.201286064415006
aF-4.047709298689393
aF-5.8755831558516745
aF-5.82375612652699
aF-2.8008680566000845
aF-4.51338692581521
aF-5.035638244996141
aF-5.489499866559119
aF-5.074178111195914
aF-4.818834978463118
aF-5.849888501983783
aF-5.5703179328815
aF-5.036283805636986
aF-5.2214792933078344
aF-4.428132179296045
aF-4.117585382326809
aF-5.406432648910544
aF-3.5858832411017167
aF-4.733478959982239
aF-3.594870586194335
aF-4.499396012985353
aF-5.432729018210262
aF-3.5885545450610654
aF-3.881614960754956
aF-5.474652151364303
aF-4.297041939254398
aF-1.977527095494907
aF-5.724725984176998
aF-5.930821090564583
aF-4.29071777465638
aF-2.9580684461605915
aF-4.515021115450288
aF-3.7298834385876996
aF-2.9927562010900317
aF-5.268410339863912
aF-4.744722387650162
aF-4.743228800315289
aF-4.530344993659604
aF-4.23772282912564
aF-4.222646044259414
aF-4.018154176287339
aF-6.053721916641331
aF-6.846461994639561
aF-5.42265402839286
aF-3.6572965873695633
aF-4.816298583529218
aF-5.466858079121613
aF-5.341907178025087
aF-5.273393545213593
aF-3.195076774444425
aF-5.204607488313243
aF-5.43374329354837
aF-6.63286068840563
aF-5.243916321630659
aF-5.905034835334861
aF-3.432192780223295
aF-6.380506124543366
aF-3.795557661318357
aF-3.2460844798146304
aF-4.889547069054779
aF-6.121481722244744
aF-5.190244412481123
aF-3.962624252433386
aF-6.054641257144926
aF-4.090800076402456
aF-6.035062988564713
aF-4.7188020064940135
aF-3.82897100628342
aF-4.9638142396601
aF-6.072166691603109
aF-4.905426327313796
aF-4.082961040620381
aF-4.7911238091220385
aF-4.970158073859092
aF-4.862884391738983
aF4.865057542282441
aF6.243230476096667
aF4.325025852193764
aF4.926247261858792
aF-4.79687852117748
aF-7.7770006773245886
aF-5.600342291714508
aF-6.021690803800288
aF-4.775465898010254
aF-5.269227597792926
aF-5.204771261696623
aF-5.310774072181566
aF-4.591365189890604
aF-5.584123085339411
aF-6.210718379925812
aF-6.152869805207349
aF-4.115060663318737
aF-5.921008816774862
aF-5.7215399965167935
aF-5.1644783758699955
aF-4.764998601532182
aF-3.3947638357473804
aF-3.5235514517335944
aF-4.1699455531243546
aF-6.77682138095555
aF-2.941497021174312
aF-4.868426424161705
aF-5.003832102873722
aF4.354041410710446
aF4.892101159091324
aF5.801937259050159
aF4.516404929395094
aF6.094350878876458
aF5.990621565188222
aF4.72645252282885
aF6.358664430919547
aF6.128936549148039
aF6.1473300404167315
aF5.421908091768449
aF4.514604740292442
aF5.610399060770519
aF5.046736023336106
aF4.951611015623489
aF6.114708831197911
aF3.8860281886966
aF5.589597250274526
aF5.380511325141913
aF4.998619147718196
aF5.200053078201286
aF6.180221995041508
aF5.428609624076404
aF3.604819498037675
aF4.923195304106874
aF6.0402084695758225
aF4.854953068735047
aF5.759770402116159
aF3.4171186813429264
aF5.759627258782929
aF3.7403328012709647
aF5.115704900244024
aF-6.686876485618643
aF-6.236459588381566
aF-6.152051494330394
aF-4.163540932895477
aF-4.616071105496777
aF-5.297853993778227
aF-5.304670235614849
aF-4.298241017297496
aF-5.086645194905391
aF-7.008936909780408
aF-4.868448696575734
aF-5.946572695007317
aF6.312867493055682
aF4.662669421122657
aF4.679872995677497
aF5.35787150523272
aF5.908343345761343
aF5.875748551911664
aF6.9197898459698415
aF6.10276996673206
aF4.846920396081311
aF4.540592775695603
aF5.077220806959305
aF6.75366274829693
aF4.833419964876177
aF4.633289622870625
aF5.340038283726191
aF4.310440585938023
aF5.966357292503971
aF5.404113576783236
aF5.682850892592185
aF3.6680405333121073
aF4.710979717141624
aF4.104238493759872
aF6.674333666370017
aF5.754737289956079
aF4.844532620444996
aF3.662989018719144
aF5.782213418613698
aF4.676904217034035
aF6.362913238193651
aF4.659642419305507
aF5.698878847304434
aF7.158285883584019
aF-6.677431591210176
aF-7.01416648157608
aF-5.524918494602095
aF-2.8307985164515883
aF-4.9867018020564995
aF-4.51617415544599
aF-3.8606909435256895
aF-4.060454847365545
aF-6.18601096797375
aF-7.249317746055327
aF-5.222072717748538
aF-4.597851437542911
aF-5.685465814786831
aF-6.096135374599443
aF-3.8294316783219022
aF-4.0909166141076065
aF-5.097977133321015
aF-5.106574341140779
aF-5.381730815683043
aF-4.419424480485214
aF-5.708844628453864
aF-4.207922070333446
aF-4.909506615860567
aF-5.7733248776940425
aF-6.229503865347491
aF-4.5365370520045065
aF-3.5289730563765858
aF-4.653255110536555
aF-4.585359156726752
aF-5.774503797531863
aF-5.663034527528867
aF-7.251741127181928
aF-3.8440454248301084
aF-4.229101916808474
aF-3.715380465399025
aF-6.420306665368372
aF-3.628219576555189
aF-4.94404119923153
aF-4.140470670356565
aF-3.2266285495049982
aF-5.739490073899826
aF-3.7659294615774446
aF-6.634562784419129
aF-5.889050294775172
aF-4.710555357759112
aF-4.421240658640163
aF-3.5316490973574055
aF-2.5226741058431785
aF-5.590791692653889
aF-5.700403238195333
aF-4.713826967943637
aF5.11247768212588
aF6.581868601683254
aF6.102675774426912
aF4.450758281878836
aF4.344362255768367
aF5.603444264275
aF5.8374890448855075
aF4.14800109234146
aF5.286877230277844
aF4.85490380415063
aF-5.653834429960721
aF-4.737046449506785
aF-7.662962343362118
aF-3.442323970598933
aF-4.350134944956181
aF-4.21125306196077
aF-5.719264782394634
aF-4.130562437974781
aF-4.397583663690463
aF-2.8699388587188155
aF-3.3546778437343363
aF-6.918954677998534
aF-5.482996245973525
aF-4.296501882559032
aF-4.15592008346996
aF-5.1007228869573344
aF-5.217220870120234
aF-5.30555237519217
aF-4.079582326370098
aF-3.2926188670652587
aF4.503940129792018
aF3.192200509032214
aF4.3881705310493055
aF6.054752221113927
aF6.624163994875882
aF6.2344950771753975
aF4.812820825773454
aF4.58304698133036
aF6.126557632774039
aF4.970328646801997
aF5.836149934948782
aF3.85404148335403
aF5.47607346703124
aF6.642442877282061
aF5.2806320599461785
aF-5.505822109622409
aF-5.683275105883007
aF-4.390917953079235
aF-6.480539957073907
aF-4.116948270237274
aF-6.501210032746098
aF-5.606980096693809
aF-6.4284784742498555
aF-4.2239214000984004
aF-4.660359962469526
aF-5.016653344840747
aF-4.003606379083433
aF-5.504184697923406
aF-5.452824409024196
aF-3.5506402231661207
aF-4.665828577240127
aF-5.7304477678820005
aF-6.144800661955105
aF-3.2854118942997457
aF-4.049807976983271
aF-4.248709880789601
aF-4.373998366189586
aF-4.945876385788205
aF-3.937759764790246
aF6.486092396411946
aF5.038865869226343
aF5.6499841645979325
aF4.86938614806257
aF4.380323360294945
aF4.728928020235242
aF4.981061635067957
aF5.090523637371374
aF4.240253192617187
aF5.494100983465956
aF6.446846867730866
aF6.514124626297052
aF5.475458232770654
aF5.49943764918377
aF6.292435258013058
aF3.66928127706624
aF6.174456598954851
aF4.611162311488576
aF5.979696678213155
aF6.002564072188084
aF5.2409109828357625
aF5.293589159406
aF5.002244051696402
aF5.997730292232985
aF-5.6803180023020765
aF-5.607851213266665
aF-4.620903722501087
aF-3.470738164541701
aF-5.467204011668033
aF-3.5809900254581333
aF-5.755558112514107
aF-5.3272834564111875
aF-4.664223066234126
aF-3.4302995928494497
aF-4.947754401504288
aF-6.211982008128583
aF-5.652816590948934
aF-5.361524861304552
aF-3.470565932505575
aF-4.126935421353299
aF-4.01484828334015
aF-5.632823943563741
aF5.885830609097532
aF4.625191008882848
aF5.261459974744616
aF6.149183532573328
aF3.777696365892762
aF5.072050651294064
aF5.229968374751381
aF3.6120866450100646
aF5.178286518048909
aF5.0726922796628795
aF3.8908596248933236
aF4.869229885311643
aF3.913806356769519
aF5.497713714038743
aF4.565619096490536
aF6.310666840114803
aF4.893943529696405
aF5.222776795077987
aF-5.43596093013702
aF-4.654546898190506
aF-6.282678036541665
aF-4.56961550905599
aF3.815970680479272
aF4.539894712297424
aF5.646306723092736
aF3.8573529426318345
aF5.189268167401642
aF3.816117114791359
aF5.837741111582758
aF6.244545200299754
aF5.7135296270810585
aF4.00191659098712
aF4.440190570214618
aF3.4658041782745137
aF5.355248767196654
aF5.088286966560884
aF4.530701115751968
aF4.907373337395251
aF5.258063818979194
aF6.271038995139325
aF6.311527037277342
aF3.4673010940010847
aF5.1293606998630725
aF4.314923098291763
aF5.973184769975519
aF5.534813429737993
aF4.542992963183138
aF5.955875146568748
aF4.98661994368806
aF4.39693436000092
aF5.642280126734646
aF4.9791362225700215
aF5.553195188150062
aF4.503206280993681
aF6.270986985307643
aF4.66347549475745
aF5.458519378011426
aF7.2712908734011545
aF6.374775358261194
aF4.735951143291247
aF2.1215921416649426
aF5.615229668496219
aF6.014150287832665
aF6.528941215881905
aF6.368122248602973
aF5.387660558664673
aF5.409609196126077
aF3.1580463751893877
aF5.394797401686764
aF5.301963685874528
aF5.984190419187289
aF6.55541568712778
aF6.076880662587643
aF5.8240531124039965
aF4.05415112514049
aF4.910203658135533
aF5.218457400470944
aF2.992498116192763
aF4.3191410891095074
aF5.482570599614925
aF4.782272763361127
aF4.956943318065446
aF6.816703651548343
aF4.738415907177737
aF3.516396198904679
aF5.029076224116027
aF-6.4665457139262665
aF-5.646499283349237
aF-3.6610495372202108
aF-5.850877849246532
aF-5.581745438213451
aF-6.446833821825052
aF-4.213325807753314
aF-4.963147892797743
aF-3.251075855672915
aF-3.9539580544776474
aF-5.037656089411846
aF-4.7435533759719455
aF-6.1597682586297395
aF-6.342337528657693
aF-3.1410721310754006
aF-4.899570053293782
aF-4.116860970623397
aF6.573945438869007
aF5.705758436085674
aF4.702642902586251
aF5.384311213649259
aF6.115668375834484
aF5.0575787479262395
aF4.988109638812436
aF5.164937214261185
aF5.619112470526014
aF5.592729033598725
aF6.758614142360002
aF5.07624053681267
aF4.9139584678240675
aF4.624640686645542
aF5.2175944948931585
aF4.51472129488271
aF3.897450881721488
aF5.771734539799804
aF4.681582577378805
aF4.4660957939638575
aF4.633245997274457
aF5.475901926116209
aF-6.409933860152484
a(lp1
I13
aI29
aI109
aI113
aI137
aI169
aI181
aI213
aI264
aI274
aI294
aI309
aI333
aI357
aI375
aI393
aI397
aI461
aI478
aI500
atp2
.((lp0
F5.185773227798818
aF5.068910724855394
aF4.399202679762815
aF6.486701413736919
aF4.862213938125689
aF-5.371495795538319
aF4.140921068030079
aF4.006625777664743
aF4.4910184696695845
aF6.348536840847844
aF3.0893954269361887
aF3.9283566359859217
aF5.985279966433206
aF6.930447590944459
aF5.231316107490351
aF5.832042346786881
aF5.218679019274824
aF3.509200236988229
aF5.191542422628058
aF-4.216191432739577
aF-6.007623348051473
aF-4.468818844424839
aF-5.827812715146646
aF-3.9445613348632027
aF4.714554262398809
aF4.065592828629886
aF3.09854794931835
aF4.568130515800528
aF-4.719478862509667
aF-3.596702925559576
aF-5.0446686373372795
aF-4.822363976665187
aF-4.580842042040069
aF-7.145054715763768
aF-5.5985088356076895
aF-4.635016538888648
aF-5.240497336735619
aF-3.859912222768542
aF-5.252202745363098
aF-5.651001372618569
aF-5.132985862653875
aF-4.0525118868035985
aF-5.079045083910491
aF6.341872995948867
aF3.556006772779119
aF3.785606596297915
aF6.067985053422457
aF-5.676549589587529
aF-4.046128493979278
aF-4.375551153473792
aF-6.5501964572825795
aF-5.324481075020518
aF-5.59678551546262
aF-3.4966045583494116
aF-3.948842609786187
aF-4.735238706718115
aF-4.637987858364445
aF-3.3566376091993706
aF-4.616348890358805
aF-6.2343430852511466
aF-6.921008280725738
aF-3.614882826485472
aF-4.161915063082642
aF-5.994291741612426
aF-2.5996011257478857
aF-4.818420877104379
aF-6.655989128154298
aF-6.688486466173017
aF-4.683026083816118
aF-5.411648940396698
aF-6.175605876960981
aF5.782904460701241
aF5.198026661656746
aF5.7359562339541466
aF6.252692702925183
aF4.4196649369634216
aF6.103978642906953
aF4.419965608820129
aF5.895331374830933
aF3.975872007859328
aF5.824778835035001
aF3.9630267378511927
aF3.582419330417574
aF4.605800019919991
aF5.637282453687301
aF4.865112224044414
aF7.013183529532773
aF6.020896799068472
aF5.640163637549953
aF4.862048529385252
aF4.928354217539307
aF5.097378236766366
aF4.63757157588078
aF5.337409626727327
aF4.227018043543357
aF5.980195181919017
aF4.558525775227613
aF2.9101984400450776
aF5.992488463586894
aF5.057955560237188
a(lp1
I6
aI7
aI20
aI25
aI29
aI44
aI48
aI72
atp2
.