((lp0
F-4.513028464607941
aF-3.347518223608757
aF-5.99254619730052
aF-4.491055157949623
aF-5.114380712991303
aF-5.0219712371471354
aF-4.867781087625682
aF-4.5094756803394
aF-6.0754991573012935
aF-6.9804553622273495
aF-5.528190694910607
aF-3.5600517323906002
aF-5.473479458655034
aF-5.2599329982424825
aF4.8862409598448036
aF4.96229658680591
aF5.1252703545453935
aF7.9104842944197316
aF4.711302079224792
aF3.223942426694893
aF6.093105875032122
aF-4.932624618693137
aF-5.001485063425907
aF-5.923472687262359
aF-4.938776073247793
aF-3.8004516752177815
aF-5.260669921033585
aF-3.5594740155700357
aF-4.839381657178
aF-5.818154129518015
aF-6.831728029268545
aF-4.263836407041966
aF-5.024654225280998
aF-6.26432845187672
aF-5.749571381538204
aF-3.6129570564094298
aF-3.699991841451662
aF-4.521108515481149
aF-7.230807308699751
aF-6.138898129938345
aF-4.087022556927401
aF-5.517576103536977
aF-4.242689294716933
aF-5.012978680984233
aF-4.479038307520297
aF-5.182775922798925
aF-3.7856156941222157
aF-5.519623624430874
aF-5.1769685958113865
aF-3.372263679481093
aF-4.693866372421117
aF-3.0071823807573805
aF6.311021248485309
aF4.22540776078635
aF6.567059267105846
aF3.5053549564516597
aF3.6848591561099955
aF5.7803095488842535
aF3.803400506076911
aF5.680893060772134
aF4.80540775772221
aF5.750973671432475
aF5.946600796836309
aF5.584534500563731
aF5.830810322400657
aF5.011798607406158
aF3.8080508706388008
aF4.41472742298868
aF3.645874566755075
aF5.107264800647415
aF4.281878007224846
aF5.651198839390399
aF5.949595041811197
aF2.219839595573133
aF4.934895674617392
aF5.043798921325343
aF4.287907208402913
aF4.2623796004332855
aF4.472021536669807
aF6.202398525128166
aF5.458298236811993
aF5.133537746347103
aF4.127073329588386
aF4.33688821750835
aF5.2901853789086095
aF5.137768502781142
aF5.494642873074287
aF4.075550117446011
aF3.6310537180261484
aF6.4270809451991715
aF4.796144293810222
aF4.142395746220472
aF4.9083694156212
aF4.953122028480389
aF-4.441918572136681
aF-5.0766774840027225
aF-5.07388254741581
aF-4.666950933371962
aF-4.48741146131356
aF-4.020771593143895
aF-5.202569850230067
aF-4.648631089280092
aF-7.805539244345541
aF-5.457056743337347
aF-3.1859654888262527
aF-5.988272900066312
aF-5.308342026241619
aF-4.700660104944535
aF-5.5330907691365745
aF-5.918003774895046
aF-4.201348522680487
aF-4.340921556968936
aF-5.353293889863876
aF-4.20348973724283
aF-4.700466211161002
aF-6.364402416786756
aF-3.6524504589863516
aF-7.003662133407061
aF-4.669848198105333
aF-5.190281575601388
aF-5.4241611843353725
aF-5.250596416060089
aF-5.2988948122416115
aF-5.186478823501624
aF-6.429791672880211
aF-5.699673979883146
aF-3.779019926612473
aF-4.856092232378406
aF-5.642830836449804
aF-4.6456892220781105
aF-6.026422574649778
aF-3.710393016813507
aF-4.44231110267841
aF-5.656517224699795
aF-4.690545787136727
aF-5.532987114478137
aF-6.273728938249396
aF-3.143469095320179
aF-6.416968913123672
aF-5.082073218570637
aF-4.210243654673797
aF-5.241313154937603
aF-5.708783021826341
aF-5.439984226362792
aF-3.0662727416689473
aF-6.30689928264029
aF-3.847414302674002
aF-6.040276831439367
aF-4.921197819643067
aF-5.431705774316542
aF-5.71003625127798
aF-5.148855917713593
aF-6.187085990684041
aF-4.859713261717008
aF-5.812515827927347
aF-3.5739754522115392
aF-5.950018023089739
aF-3.8655508189440297
aF-5.416988837577069
aF-5.4339092924586785
aF-5.0930710388632825
aF-4.975024665388571
aF-5.975440610574738
aF-3.2029884924082497
aF-5.74860476456407
aF6.600833737400574
aF6.747382924786146
aF5.425470256021775
aF5.240519783652157
aF3.7482578193396847
aF4.2036127132143815
aF4.377759846976291
aF4.809439527626906
aF5.21211348768279
aF6.035264066981553
aF4.264629717928258
aF4.914283585626819
aF4.109710479613721
aF4.6360905265619685
aF6.313036671267043
aF5.577383429526556
aF6.296100050353654
aF2.953929496571221
aF5.669346818496866
aF6.147661186903097
aF-3.7264866713197256
aF-5.216111526086458
aF-4.378240209933936
aF-4.986470700434322
aF-2.8151459561091574
aF-6.819287161966339
aF-6.373959220171825
aF-5.474358836838031
aF-3.8673371158879397
aF-4.911164779992664
aF-3.7450166836652334
aF-3.989189339050947
aF-3.966595267138212
aF-5.348567950700874
aF-5.375340122379317
aF-6.538066962525198
aF-4.6451737251647955
aF-2.6280628745319152
aF-5.886578230734006
aF-4.873381641572992
aF-4.353260615242236
aF-4.505409236627826
aF-5.057460165295879
aF-6.063940989530437
aF-4.7096675858763515
aF-4.576074468628043
aF-4.551529313151181
aF5.858019818142256
aF6.633963792133712
aF7.213462754810047
aF4.706276270038345
aF-5.000154845926924
aF-4.698559116074925
aF-3.6986142978299306
aF-5.356998585310208
aF-3.710891815776396
aF4.571850297961062
aF4.885435674547093
aF3.0231435524857204
aF4.705817762132499
aF4.693545168271354
aF5.175081752741858
aF5.320059469022501
aF5.962580591236285
aF2.7505107339897337
aF3.522256568075846
aF4.064622599450323
aF2.9459502492231997
aF5.17687526523375
aF3.460853299222916
aF3.7639922784495954
aF4.762729185720149
aF3.9174043948411343
aF4.284872516862765
aF5.864899670481698
aF5.962842301321533
aF4.976078121577293
aF4.346236873820899
aF4.345113657098663
aF5.938553050982725
aF4.989186624681804
aF4.686076371206482
aF4.832266664258415
aF4.342266479223126
aF4.846764113519431
aF-3.440219250407379
aF-5.511739385841091
aF6.045846025438026
aF4.4440441416392025
aF5.137456579847565
aF4.487266688613991
aF5.896212157094553
aF4.349356290792728
aF5.093317492654035
aF4.124718393423909
aF4.944297882158027
aF5.083569803656294
aF5.540001410386397
aF4.050426734461766
aF4.975813492960622
aF5.736668662507521
aF5.582625454678653
aF4.034890072968433
aF4.915255777164065
aF4.735382587580487
aF5.0086968668831116
aF6.304760460042832
aF5.669189426843469
aF5.227746250907949
aF5.208156868129104
aF5.249583373942185
aF4.574910801841806
aF3.999922085050726
aF-4.345564916869853
aF-4.093602619590085
aF-5.064942557434267
aF-6.826335184889297
aF-5.262344134296807
aF-3.9546385521049157
aF-5.373472916077827
aF-4.141947041678859
aF-4.582317910095741
aF-5.47693568331747
aF3.709137367078527
aF6.496257664364215
aF5.327284018430729
aF5.263148802703547
aF4.63839175641657
aF5.919759876912201
aF5.302308460004929
aF5.330118846367475
aF5.49043250176698
aF4.066580995953781
aF3.7992371150022173
aF6.162315311719947
aF5.258376791976947
aF5.0349322384880635
aF5.541766332648918
aF5.961531795821011
aF5.782607709580044
aF5.030160244359329
aF4.832217327472216
aF3.9201353884811523
aF-4.1637380235741395
aF-2.9442797235808893
aF-3.0767287477682324
aF-4.959204386941186
aF4.956034018374835
aF5.916033204841959
aF6.95742245028912
aF3.839666701372477
aF4.415743897088021
aF4.767170953412908
aF5.191023001747146
aF4.345673754789969
aF5.667554699364157
aF5.85261129269073
aF5.217419552008468
aF5.962727361037407
aF4.733119841899019
aF4.118662799642921
aF3.6108347736687767
aF5.030860571185102
aF5.812327983404078
aF4.794788603156076
aF5.466332152851491
aF-3.200389201853766
aF-3.8723389128172805
aF-3.5810102390090948
aF-4.668932725714401
aF-4.366648914659648
aF-5.020844834298545
aF-5.392598355620528
aF-5.962007964946547
aF-5.9706905962923456
aF2.58308256640106
aF5.22788200519026
aF5.041885828766747
aF5.346148215787832
aF6.321635887193221
aF5.092122099715403
aF4.905089911472052
aF4.0373338772049125
aF5.132752496203768
aF3.7852645806513125
aF5.618358353079645
aF4.695451700960637
aF4.431134471389998
aF4.938690665785185
aF6.595844621811585
aF5.901011189367285
aF4.7649657745943745
aF5.00887653298276
aF3.973454282792761
aF3.3930380570163674
aF4.756931129702676
aF4.186080857372765
aF4.624515022712076
aF3.9173252553176816
aF3.141604662553643
aF6.8016461873025245
aF4.3114031538021855
aF5.231296858939195
aF3.5380108318018273
aF5.3505554419486785
aF4.056411394871073
aF-4.022844299020094
aF-5.4343232986870635
aF-5.263738171661328
aF-5.388652858492426
aF-4.942441784623531
aF-5.898328994248979
aF-4.7644380418444365
aF-6.603011723946757
aF-5.764299087119922
aF-4.946979166546886
aF-4.091094207148905
aF-6.002544497983162
aF-4.017354990774567
aF-4.786858396272614
aF-5.626709917818782
aF-3.968334377234086
aF-3.932629503322648
aF-4.1761995718964355
aF-4.90946117230057
aF-5.486739229187262
aF-5.068365486242205
aF-6.588102907367918
aF-4.20827481828237
aF-5.036489633956286
aF-7.908579556629448
aF-3.57821693550643
aF-3.4494629484135433
aF-4.976066618244102
aF-4.980968081193642
aF-7.066075316829562
aF-4.054365888499166
aF-5.342675564340534
aF-3.5226068277658475
aF-5.958608810155015
aF-4.074314424734267
aF-5.992934442102442
aF-6.8527337533986135
aF-3.6633380610380764
aF-5.765492439722925
aF-4.550965587687118
aF-5.563774907504457
aF-5.506274233063372
aF-3.5839369161321377
aF-4.0903608202996615
aF-7.063970839445252
aF-5.065521628115367
aF-5.439662494011481
aF-3.967017589006466
aF-5.881498863525564
aF-5.299986507075991
aF-5.652314615493917
aF-5.666023538068213
aF-4.49047073173225
aF-3.9325493654843355
aF-7.043497516604258
aF-5.472727509212724
aF-4.171659722721463
aF-5.391063160729943
aF-3.851385518869626
aF-4.4194162900578435
aF-4.706170311684316
aF-4.361117334785271
aF-4.849905204901691
aF-7.305752773031441
aF-5.920688159275288
aF-4.127265418411488
aF-4.776338246534399
aF-5.182918981412175
aF-5.48122427019034
aF-5.07182757447712
aF-4.30872261193342
aF-6.131200735469111
aF-5.2920609961502025
aF-5.932946494208537
aF-4.797260548566034
aF-4.408076354769677
aF-5.602875341595927
aF-5.217657457334151
aF-5.491486323307276
aF-4.06430936540353
aF3.793715882040754
aF5.274450359186222
aF6.600241843115641
aF4.099908673467729
aF4.877401718849678
aF5.3952140857955335
aF3.6254737228869813
aF5.064593939967231
aF3.9610443995194924
aF5.3260351403261215
aF-6.108212618729235
aF-4.693977832863382
aF-6.014763202237866
aF-5.026005190263081
aF-5.323386887800802
aF-5.230242630969431
aF-4.354758339231631
aF4.539094883334572
aF5.537314962334813
aF3.8369224407880753
aF4.30479049394158
aF5.325780440632542
aF6.952050353834631
aF3.8180935465529338
aF5.78805313321115
aF2.2992726673549937
aF5.42500915673725
aF6.006443684329506
aF6.265758013898005
aF3.4089076130095686
aF5.764683238765849
aF5.138295866989126
aF-5.130601785017132
aF-6.144544590393983
aF-4.365097180686189
aF5.877090232728808
aF3.396537272849512
aF6.315048650810757
aF5.73513960181437
aF5.714389887817036
aF5.746705896781432
aF5.950495384455674
aF5.833469030718894
aF5.173267887397915
aF6.08154375192991
aF4.55709102130741
aF3.7054692204856385
aF4.641069733403454
aF3.7167365521816365
a(lp1
I15
aI22
aI53
aI95
aI166
aI186
aI213
aI217
aI222
aI251
aI253
aI279
aI289
aI309
aI313
aI332
aI341
aI372
aI452
aI462
aI469
aI484
aI487
atp2
.((lp0
F-3.364019995260605
aF-7.35740135499978
aF-4.443930859814517
aF-5.643717645327442
aF-6.270469433755469
aF-5.218982998314725
aF-4.23633638813472
aF-4.893731304691672
aF-5.233095948060088
aF-4.3673153699689715
aF-3.82343875008518
aF-5.504231065120157
aF-5.081178138857531
aF-4.195937739884437
aF-6.128046763246867
aF-4.682378160622885
aF-5.668046443396701
aF-3.853617608009499
aF-3.346027071365181
aF-4.745624917153597
aF-6.4495187896947535
aF-7.153590902269727
aF-2.9991382140504275
aF-5.550238256355281
aF-5.498456689778324
aF-7.349944555925438
aF-6.646199955453051
aF-6.667519137762293
aF4.672172114378213
aF5.9430675399922
aF6.088597820566797
aF4.799152328423956
aF5.56452981790462
aF5.488773750954056
aF4.098599443052073
aF4.5140259780500145
aF3.060265004619848
aF6.568180514800185
aF6.0242438610353695
aF5.550601825845226
aF4.388798151166657
aF3.726615163901191
aF3.819002548115848
aF6.57541999901058
aF4.7716911275367435
aF5.484090818827874
aF5.081690010695167
aF5.578171133165945
aF5.478826699147204
aF6.0089686088804966
aF6.412589836555828
aF4.579446167234176
aF6.7674826601063085
aF4.8832043190569445
aF6.3621062436674904
aF6.589288829486597
aF6.2096280066973595
aF3.1197053351161275
aF5.7552753331652
aF6.055163924147124
aF3.7885232220712863
aF6.186485108278868
aF4.917849104051438
aF5.078545245045944
aF4.875620304783121
aF5.567150148021074
aF4.058793853961469
aF6.811130962974595
aF4.577277765856795
aF4.042903814238936
aF4.465518121284132
aF6.509666863709481
aF5.303933617091671
aF4.259372682649772
aF4.783192073837145
aF5.421108446130421
aF6.132635941996003
aF4.08052816572574
aF5.790837818068135
aF4.649900387120584
aF5.426275900106226
aF5.622354463562218
aF5.096068147792994
aF4.856228861412323
aF5.379568871286471
aF-4.496481525196398
aF-4.679684997654287
aF-6.764565771967237
aF-4.926573234215736
aF-6.9708655326076485
aF-3.566250411655187
aF-4.56534314057669
aF-3.8326489931635255
aF-6.6005358246543056
aF-6.207928737053258
aF-6.4696596061768314
aF-4.883576602204139
aF-5.129118101480361
aF-3.218757268257803
aF-6.023850205258519
a(lp1
I29
aI86
atp2
.