((lp0
F5.56651398164453
aF5.168197159563018
aF4.454296292908559
aF5.297161368346087
aF-3.9245428699613933
aF-4.393416554211642
aF-4.649547408534263
aF-2.891327694477916
aF-5.143533885778503
aF-3.9328526577586445
aF-5.537307681620632
aF-5.579982565437766
aF-4.55084452769061
aF-3.787694341188046
aF-5.1117157766488805
aF-4.571012168402597
aF-4.714836613687784
aF-5.805057695929398
aF-3.784275154710639
aF-5.368173876242573
aF-5.557057802207326
aF-4.083637307924722
aF-4.437527209422442
aF-6.0648129054012045
aF4.936263845092219
aF4.094676155797666
aF3.7491334714213673
aF6.179751186682222
aF4.744267766926196
aF6.0590883157600945
aF5.650711910648804
aF4.828410542193075
aF4.794870772988259
aF4.56678556996989
aF5.972672814335267
aF5.356442625723015
aF5.1222674914859345
aF6.6858137509046305
aF6.239345827023322
aF4.694460327083403
aF-4.211392731982177
aF-3.572305734516048
aF-4.481352761648345
aF-5.612491099652187
aF5.182986425009373
aF6.5818374124583805
aF6.712384602883086
aF4.81147249138266
aF5.772142971389032
aF4.609400410307271
aF5.175096254229635
aF5.152964969294969
aF6.20201195091501
aF6.3242068773902975
aF5.04654481911953
aF5.883483668944652
aF4.120876525805305
aF6.1315588518442246
aF4.174326843782546
aF6.401875335704947
aF3.201711065189353
aF4.853182419213544
aF5.655958798183111
aF5.689930227553697
aF3.5967103663646416
aF-2.7534990641191466
aF-4.823929723478511
aF-4.31019170592506
aF-5.2318187666124745
aF-4.5592141427961845
aF-4.96131789158442
aF-5.01081296199854
aF-4.607065113886786
aF-6.212935627893684
aF-6.200872195845538
aF-5.406278431714502
aF-5.119000513299927
aF-5.1098807476562165
aF-5.598799250106216
aF-5.184157005763658
aF6.6097826040261465
aF5.306085328683827
aF5.8551442345974785
aF6.841040047824619
aF4.610170191242377
aF4.379806019545406
aF4.551924481222798
aF4.7162722838595625
aF-4.085950028127409
aF-5.686946349381072
aF-5.946559000311203
aF-5.226100463062984
aF-4.464761627712427
aF-3.5205162150904235
aF-4.555294875357497
aF-4.578270822815627
aF-4.594255973537795
aF-5.3657360580915245
aF-3.4228407689160063
aF-6.162252962421839
aF-4.712687979566024
aF-4.403769489631461
aF-5.932637174909635
aF-3.786412352118
aF-4.425467721283078
aF-4.558996629316922
aF-3.7018025410620243
aF-6.248985483853932
aF4.185449713200487
aF3.3236418552213496
aF6.775496645412195
aF3.6011820040307896
aF3.45621231015674
aF4.504986456705509
aF3.4888749605011604
aF3.630617510156621
aF3.908129197719824
aF6.9677674604086
aF6.997451425467226
aF5.851504396057355
aF4.4357623130787465
aF4.926360784261348
aF4.311373840870589
aF3.4979459030089606
aF4.144597338328106
aF-5.391209799644569
aF-5.449283770805623
aF-6.598804343779182
aF-5.545843281687984
aF-4.605329443779776
aF-3.9653290794493214
aF-4.440387595489565
aF-3.3047126054111238
aF-5.041346690906062
aF-5.693278232174345
aF-4.335708969039963
aF-5.655723673153853
aF-6.040159884431292
aF-5.731663669382973
aF-3.983625897672959
aF-6.364083856221877
aF-4.915282960097877
aF-5.743622568414336
aF5.132179191575659
aF5.3263100618985275
aF4.775905278124838
aF5.698194008634753
aF4.915270007752971
aF4.5170809895691
aF4.717311121858586
aF4.147597131376066
aF5.488767460671375
aF5.784849782276628
aF2.3417668310543713
aF3.1932104540680406
aF4.437156371770849
aF3.8181811864364086
aF4.8751648695528775
aF7.099529056677641
aF8.108958869312678
aF7.187554934132811
aF6.160070166627133
aF4.717544595940094
aF5.166506493892593
aF5.320213238343829
aF4.658999126178813
aF5.355142785843129
aF5.66418755506832
aF4.797764039674197
aF4.959585350906008
aF-5.813948562887531
aF-4.785372161501691
aF-5.5773177701899534
aF-4.763935753140539
aF-3.8985999786782353
aF-4.00939198218227
aF-4.49119386565671
aF-5.565327983689049
aF-6.636825096501127
aF-4.87435173345877
aF-4.90418981010081
aF-5.3175835903944115
aF-3.7431377425473373
aF-3.650571396859299
aF-7.238709875799693
aF-6.1816246822550625
aF-5.4917425649130225
aF-6.004980585992195
aF-5.243176188010926
aF-6.437071634167595
aF-4.641543996373009
aF-5.992046516010005
aF-6.1806894517895055
aF-4.693149691204042
aF-5.980708090372632
aF-6.588860966081581
aF-3.105587345281228
aF-5.02248872498434
aF-6.4885193154916445
aF-5.72969646042254
aF-4.514631940110647
aF-4.863619458880444
aF-5.244290134019133
aF-4.6778889891839235
aF-5.520426259974736
aF-5.133300550721529
aF-6.996084975167069
aF-6.725415738915299
aF-4.417841457007421
aF-4.5341195425753344
aF-5.43182209317109
aF-6.652977034622239
aF-4.395151629173335
aF-6.269226608538147
aF-3.081480611161446
aF-4.816464553992526
aF5.168234580536824
aF4.3457295245939305
aF5.012239760777118
aF3.393659969513563
aF5.728866076777982
aF6.016254652826332
aF3.672683890211072
aF5.227725655061394
aF3.8569325922722686
aF2.649576869312848
aF4.072226776480414
aF7.321716313386544
aF-5.289749277165308
aF-5.355627330062272
aF-5.619242800466171
aF-5.771070841913057
aF-5.339808510198441
aF-4.2149242766013355
aF-3.6506442463491586
aF-5.532228054561921
aF-4.380965725291002
aF-6.233110115682811
aF-3.488616818919384
aF-5.021476404797845
aF-6.653318920305732
aF-5.671178562356466
aF-5.341289177092611
aF-4.706053059809071
aF-4.190252740383808
aF-5.1259059729642535
aF-4.796290166211792
aF-6.2953485079454845
aF-4.883251865766915
aF-4.804542972908819
aF-4.313659869506258
aF-4.4584877773770595
aF-5.238231315469445
aF-3.976275984168011
aF-5.348869186795496
aF-4.39137345741607
aF-5.8787361491185655
aF-4.567288400433245
aF-6.2121127551192235
aF-6.093614823434164
aF-5.039486121445914
aF-6.622750835473654
aF-3.165229281264388
aF-6.6964180223361485
aF-5.279143186912226
aF-4.9044289596766015
aF6.384187564479499
aF5.152845868114803
aF4.83290008906415
aF6.535979708959386
aF5.95443801866169
aF6.586975361628149
aF6.379709771043149
aF5.425486861840135
aF4.54005653019473
aF4.1335569809033945
aF3.8072758806460016
aF4.531085233602577
aF5.380842849857684
aF3.2336543389821246
aF5.397652878799647
aF-4.29920727689006
aF-6.595035954434141
aF-4.7126503961489075
aF-5.715265893856869
aF-5.756512870196168
aF-6.315118471479041
aF-4.386902921486054
aF-3.846959210048025
aF5.565029193416903
aF4.488643436034163
aF4.15953860283786
aF4.85342578055339
aF5.988240949619309
aF3.8544525399289338
aF5.305544521852047
aF4.993103926785535
aF4.186266563262431
aF4.818033253168852
aF-5.293055965810602
aF-4.123995176783083
aF-5.321091435650609
aF-6.770947188135915
aF-3.9337920784663387
aF-5.1472572412162245
aF-4.753731247035544
aF-4.4379525436049105
aF-4.2906485753178725
aF-6.273177499167637
aF-4.904295357813105
aF-6.18510336954645
aF-3.8353995509056396
aF-3.0506444258875405
aF-4.046123591835983
aF-3.7346489113314325
aF-3.4090357423591575
aF-5.5811953771994
aF-4.306856157165364
aF-4.22623099429724
aF-6.750664405232536
aF-6.117851667739114
aF-3.9638844863093317
aF-7.345342688231643
aF-6.0884141219578325
aF-3.802440143283694
aF3.826459171276472
aF3.554809164567144
aF4.652712735674175
aF6.613231509076221
aF5.333151685454789
aF6.070678265050544
aF4.756758472707687
aF4.457459419690001
aF4.860968080881644
aF6.219429335817372
aF4.73497208420217
aF3.1744012076630317
aF3.515072577814186
aF4.803155891169558
aF5.044657875630958
aF3.646925514880871
aF6.079510557702855
aF5.88991175373414
aF3.4536028129547605
aF3.3928310713552134
aF5.382738296584141
aF6.227431804269129
aF4.221491668157983
aF4.492114051699015
aF5.770388231642063
aF5.412695691566988
aF5.874251029406929
aF5.284869020250437
aF4.736915985624007
aF5.657228720496634
aF4.368577523228349
aF5.490476039943127
aF4.618918347620465
aF4.7981060603378385
aF4.2313373636100575
aF5.12130921544244
aF6.217240603214375
aF6.293748699059421
aF3.9990120381024
aF4.387088793370543
aF3.047231177855748
aF4.761036797435512
aF6.278380204091377
aF3.94404631072038
aF4.655504078062766
aF6.381027012822396
aF4.4125425720954805
aF5.270699299003611
aF5.120772385989
aF4.4557621334260205
aF4.5918609117560205
aF3.746831692946601
aF6.0463748527632655
aF4.365383331363539
aF4.674929683481102
aF4.1217339445259
aF6.658960610358765
aF5.112713850430762
aF4.6056511824023625
aF4.886249886115467
aF4.607066641680026
aF5.9242898201832155
aF3.189979120176633
aF3.8651478581355123
aF3.4539309515019987
aF3.594362044032097
aF6.6624187939674275
aF4.825733980290585
aF4.378580174228042
aF4.875584769504482
aF4.49053079778426
aF6.788280281620715
aF2.966191653346546
aF6.436977278605646
aF4.876946976764028
aF6.340154785572328
aF4.68222432169015
aF7.001781561729173
aF5.38875795391964
aF6.065130968588112
aF3.927483777050214
aF5.333982769359456
aF2.9312709980103
aF6.066583132908804
aF-4.8128031400955225
aF-6.412088053950551
aF-4.566371864794852
aF-3.721876225336902
aF-6.414353348321516
aF-5.057418013022751
aF-5.069009654880156
aF-4.285851917665597
aF-4.341974630619796
aF4.806966813328139
aF5.798517111015448
aF4.799479776555525
aF3.527568382140638
aF2.6822344288278392
aF6.10789173902878
aF4.175287841801682
aF6.396143154938106
aF7.141400644300171
aF5.0114837589546175
aF6.30657305642669
aF5.284098560552316
aF5.176021571326194
aF5.299082502960192
aF4.7689718452854395
aF3.9482141806985735
aF2.968151683662956
aF4.6386487124305225
aF4.59552593751641
aF7.099905264458849
aF3.7484880033688337
aF5.450748128663338
aF5.180776206212732
aF4.695856457916823
aF4.520516597097997
aF6.090577078380848
aF5.512833827825018
aF5.431520371773869
aF5.365891977984351
aF5.540751270703893
aF-4.729997209997645
aF-5.014054182184626
aF-5.6453177833194985
aF-4.511593449427906
aF-4.529102880714672
aF-6.482883224060721
aF-5.358317949916144
aF-4.141461816745085
aF-4.303679809478103
aF-4.265570059575942
aF-5.179484688147571
aF-6.212367583364836
aF-4.534468651434611
aF-6.2244550099407725
aF-6.56896376575454
aF-6.905879433280944
aF-1.89806467606308
aF-4.265884366510442
aF-3.747786108005587
aF-5.436444857053791
aF-3.7379507583434917
aF-5.4148388510880965
aF-5.135940712761602
aF-4.387837941459418
aF-3.7688630126861815
aF-6.610731422113939
aF-4.717531713733363
aF-4.154465049605694
aF-4.348709050546119
aF-5.642665983251752
aF-3.879140265914556
aF-3.876394054380939
aF-6.385958489012605
aF-4.346738117926198
aF-5.759076105756258
aF-4.6247190546139025
aF-5.615408989215976
aF-5.523733737094375
aF-4.608167801859634
aF-3.717507461593951
aF-5.1249225580707956
aF-5.0924022941208245
aF5.365593379355975
aF5.61569097715955
aF5.912687257496271
aF4.40715687150982
aF6.580007869197629
aF5.752837712401037
aF5.990553235117464
aF5.10119104861428
aF5.288727587411872
aF5.404317049378459
a(lp1
I5
aI25
aI41
aI45
aI66
aI81
aI89
aI109
aI126
aI144
aI171
aI217
aI229
aI267
aI282
aI290
aI300
aI326
aI410
aI419
aI449
aI491
atp2
.((lp0
F-4.418087097111803
aF-5.280429577469162
aF-4.257240333618362
aF-5.003143720169587
aF-4.414938641877403
aF-6.483454573782535
aF-4.227928206333112
aF-4.023081563614571
aF-5.96859518644894
aF-5.157252534891145
aF-4.47313832229752
aF-5.292325400905605
aF-4.646701915527875
aF5.901235148398972
aF5.5466493740570115
aF-5.466401020311892
aF6.136863903118565
aF5.663124069462303
aF4.822751976038741
aF4.008564427285861
aF6.070234700382244
aF4.000668035860832
aF4.630227014355652
aF4.700566692046619
aF6.230577276076758
aF7.05355424129281
aF-5.423064310757356
aF-5.873963438950256
aF-4.258185445236716
aF-6.492627833440769
aF-6.235488119517076
aF-4.422312628741732
aF4.685101984073877
aF4.714463433658439
aF4.6475551822557
aF6.926815986976403
aF4.15172045039188
aF4.556566993023282
aF4.874059634274181
aF6.1364480357063504
aF4.539892288686249
aF4.4970160247639175
aF6.034159711752892
aF6.028213407068479
aF6.76253561544878
aF5.339098996648078
aF6.42472444712751
aF2.8025903555177543
aF4.669580751706746
aF4.854247809304557
aF7.169002004255983
aF6.332983894902067
aF4.925983804758724
aF5.92521963718676
aF4.69168155875157
aF5.027733742689273
aF5.460010008698549
aF4.41922656018139
aF3.887179775519045
aF5.245336461327992
aF5.1805075099706785
aF5.903495026742527
aF3.925845473933058
aF4.887893047665241
aF7.173664754554823
aF5.8308867054485605
aF3.5031270523582085
aF5.762673203472879
aF3.694194888213134
aF5.46810007491661
aF5.432764715221483
aF4.67359149286356
aF2.9616770362256246
aF6.646701306417663
aF6.191005348665213
aF4.469840913767274
aF3.4092807847666418
aF5.536564830330302
aF3.863540418932368
aF6.660163628731946
aF4.218962543631943
aF5.473656810978017
aF4.65432469296089
aF5.580425955281549
aF4.031458213477461
aF3.5972367562283183
aF5.651111132654857
aF3.8407932168410293
aF5.475779447714011
aF4.624170531248364
aF6.624391608144093
aF4.085638663149271
aF4.5204794311945715
aF3.9087664071342125
aF4.756876777188103
aF5.286552656858428
aF4.626238647765178
aF6.007052521751009
aF5.516843494051185
aF4.419760192432416
a(lp1
I14
aI16
aI17
aI27
aI33
atp2
.