((lp0
F5.586583710571937
aF5.319339827244948
aF3.6770458998929247
aF3.8361669447381197
aF5.1485148135139305
aF4.608567126231425
aF5.161522255686023
aF3.9541554018927845
aF4.817840324749601
aF6.253940628537523
aF5.330401873067583
aF4.597136663625477
aF-3.78420985667589
aF-2.958152062471592
aF-3.7067215115967844
aF-6.692376314418726
aF-5.505998025042477
aF-3.482621815545035
aF-4.577285450929391
aF-5.427909250328567
aF-4.590563486838079
aF-4.935466368568345
aF-6.098077709457398
aF-6.040611959553351
aF-3.0957157317577133
aF-4.629094886355174
aF-6.855045591852161
aF-3.2073282766636866
aF-4.8657702682708335
aF-5.714284822895178
aF-5.181346234968617
aF-3.770757947277492
aF-5.297190766732937
aF-5.003842398438751
aF-3.8167606748328264
aF-5.896157715667056
aF-4.528339877837134
aF-4.426760013967132
aF-4.72111050647034
aF-5.212079803201411
aF-5.692535952520821
aF-3.6677576634025546
aF-5.435641776305384
aF-6.847101339757866
aF-5.929377560627305
aF-8.003820238359637
aF-4.285734691868252
aF-5.2920278312841464
aF-2.492349229018437
aF-4.492714641763469
aF-4.007047975734821
aF-5.271358405134383
aF-6.673597959101038
aF-3.976237022713162
aF-3.4013317172871016
aF-3.9374448269433717
aF-5.8543954840947405
aF6.092986722961369
aF5.210855569280724
aF3.5646940850309328
aF5.737339246069242
aF5.1396998106785095
aF4.787478794083481
aF3.7866192342342955
aF5.900543912101203
aF4.454258389221752
aF4.701964099903374
aF5.975556708817356
aF6.130268868355103
aF7.121652119721935
aF4.460176979141865
aF4.0179219599237435
aF4.781760011359358
aF5.380990974270488
aF4.6120867782304
aF5.615888352310513
aF4.941232176437728
aF1.6801130485823332
aF5.435130825155413
aF4.209922220363886
aF4.425521643118594
aF5.301083179403729
aF4.364512501284561
aF5.220206341622798
aF-5.188259861854471
aF-4.9889621943156675
aF-3.56352102833218
aF-4.464648509029686
aF-7.146396369789004
aF-4.640427050718035
aF-4.707844957745952
aF-4.56998538167092
aF-5.901872393173034
aF-5.287633739892324
aF-4.114675163755287
aF5.466824082048506
aF4.112709163287079
aF4.104518339538435
aF4.934687135924092
aF4.84863888201266
aF5.7688574601282765
aF5.505624449056146
aF4.277506792879584
aF6.143337928842106
aF5.505583726416125
aF4.447815491920471
aF5.091178389247064
aF4.630918509510711
aF5.3804587024203165
aF5.181666197689062
aF-5.37476021264558
aF-3.954958058948386
aF-5.558184053178315
aF-5.165711786851034
aF-3.8824945195696734
aF-4.255892637009135
aF-5.217833227899957
aF-5.106300639075984
aF-6.1748079245614615
aF-4.436316227395592
aF-4.568441377462703
aF-5.046344747406642
aF-5.064775375282681
aF-5.623805325864536
aF-6.157857966268963
aF-3.869402851429729
aF-5.137387183543458
aF-5.7623496372034575
aF-5.879994735679751
aF-2.5415119689173777
aF-3.98394563221557
aF-6.8678868541284706
aF-4.233517262819538
aF-4.608114558141752
aF-4.636714964493623
aF-4.12213152154486
aF5.134682625660477
aF4.436374947382519
aF3.808450941385503
aF5.910037761565468
aF3.5297466390857437
aF5.324067860105029
aF2.8729697869437523
aF4.57402787389029
aF5.373427741266684
aF4.913900861786891
aF6.428660373107952
aF5.9785793888700915
aF5.110301110995701
aF6.5719973697228005
aF5.136199709135288
aF4.6745237005874
aF4.451099544607533
aF3.712334911405989
aF6.673671246974557
aF4.565777114713063
aF-6.923534536068536
aF-5.6559477265412905
aF-4.953931523944983
aF-5.866780007787657
aF-4.816274004205326
aF-3.6758547547293445
aF-6.371754675817746
aF-4.452023042552359
aF-5.4445970560694805
aF-5.079740793902762
aF-5.780577557814422
aF-5.926690777750167
aF-3.684180610816081
aF-2.500330568166956
aF-5.631235299217828
aF-3.4529804215537254
aF-4.804895701471411
aF-5.513553753926176
aF5.6785643017237035
aF3.440565204354707
aF4.302893218877476
aF5.987163869211896
aF2.3836980212312855
aF5.412064899667136
aF4.323090311417486
aF5.694082701861901
aF4.60060253479177
aF5.34924881174369
aF5.6931257243065865
aF3.4647047791302157
aF-4.472183125205452
aF-5.495169265967107
aF-6.188149361323163
aF-6.0982327919431105
aF-5.198160165238018
aF-5.084755542887679
aF-6.9897879509431196
aF-4.715597294161972
aF-5.528678182741723
aF-5.836833876524955
aF5.25336617202781
aF4.919801591907868
aF5.210967002238293
aF-5.038599820878011
aF-5.220511216719361
aF-4.870915048424519
aF-5.527948212372323
aF-5.52657907053227
aF-6.42526403111224
aF-5.97971431004269
aF-4.589382636768585
aF-4.010630782963748
aF-4.961118754961154
aF-3.113195582794385
aF-5.636732500029518
aF-4.37623553686581
aF-6.981405080417072
aF-5.729413590680356
aF-4.605160603362614
aF-5.362801838175033
aF-4.908907926485462
aF-4.567366055661587
aF-5.850486650712663
aF-5.580757137112907
aF-4.481659345898546
aF-5.108946331813046
aF-4.140225524754975
aF3.6868821740860183
aF5.498356932720601
aF4.9894183212757115
aF4.345385340436626
aF5.947714286440318
aF3.6002411151414595
aF4.460302685117775
aF6.553989337830979
aF2.3491608081448576
aF-4.8024452751754785
aF-3.6512426720799422
aF-6.7293659566811375
aF-4.653180408131287
aF-4.933932873247386
aF-7.234583519129271
aF-7.615081676722215
aF-4.259888625603868
aF4.729998894947447
aF4.868580532007749
aF4.233922299789726
aF4.978159116406629
aF4.085585941013109
aF5.944088040945253
aF4.836202384027338
aF4.216139123792573
aF4.085325235016739
aF3.078309475958259
aF3.3780766614611872
aF5.527730781304365
aF3.9564005297208373
aF6.238991970459603
aF5.312120657845479
aF4.5821706147361425
aF4.6944807217301365
aF3.2555154472207666
aF2.8595063804487624
aF5.895291301740407
aF5.10446512298199
aF4.395693984340683
aF5.000563150425611
aF4.729050245661844
aF6.269016652921858
aF5.440484381051241
aF6.115351565784748
aF6.706928947644171
aF2.46723550984487
aF5.9332695353735385
aF6.4645086030584284
aF6.1829899960197
aF5.043267076472212
aF2.3724663583823027
aF6.37779532461645
aF3.6603674509122
aF5.3297888587782385
aF4.375092329999652
aF5.871605625277512
aF3.820518165135457
aF6.487830293944878
aF6.004119055828656
aF6.094427867653659
aF6.332872854153971
aF6.708838349911587
aF6.519218271444357
aF3.890525176125099
aF4.13285423786837
aF2.795464549872009
aF6.346922115410871
aF5.473685948157222
aF3.423842006571995
aF4.726360169347943
aF4.877675364322751
aF5.642395822754105
aF6.1666669579457665
aF6.001723640218551
aF6.326114671010078
aF3.2582424852329295
aF3.4934731153815353
aF7.442228246688719
aF3.293521533741654
aF5.638661542387068
aF5.867583678458099
aF5.646905880478421
aF4.4506835222061625
aF2.9201736414146615
aF4.3321041338512165
aF4.25353105412527
aF6.4468540098075655
aF5.592295164402945
aF4.453950542948018
aF5.08825107407025
aF-3.3619867847145324
aF-5.684030049393255
aF4.147771074671322
aF5.54080865488132
aF4.039855751014702
aF5.35320644506286
aF4.122116195850104
aF3.626695232065873
aF4.799342616886887
aF3.1923323186389014
aF5.4822280484243775
aF5.192401416038828
aF5.250124353417824
aF6.218091064435083
aF-5.564219608823757
aF-2.6890557014755165
aF-5.131381960337224
aF-5.007202698249789
aF-4.7611878415319735
aF-5.286579084266528
aF-3.710172382450801
aF-4.269916014890779
aF-3.582702842369806
aF-6.31323634634746
aF-4.165487714810794
aF-6.480543345466553
aF-4.447074157559011
aF-3.2008759301160072
aF-4.92679214347251
aF-5.463681926529898
aF-5.390880642533788
aF-4.4578406942643864
aF-4.381060176971247
aF-5.5508809282188665
aF-3.514683585728056
aF-4.398209634927113
aF-3.86432031257084
aF-6.693461600585965
aF5.5505195483612395
aF5.999003836736734
aF4.4481356062596955
aF4.573505360550709
aF6.04656491234057
aF4.656731370192677
aF3.8330648500021933
aF4.867250165679314
aF6.798359442722561
aF3.3500049626788684
aF5.73920646700538
aF5.150424073691975
aF3.722226057003051
aF5.178854359800464
aF5.2054378940855095
aF3.807072905266001
aF7.718775513915283
aF2.8170097435878647
aF5.967854038961165
aF5.219877298961601
aF5.299069707148645
aF5.319311846793119
aF4.869480274154468
aF4.7751013224411665
aF5.142611502000621
aF5.866467683652847
aF5.274706015507651
aF4.458275232706959
aF4.37204810459606
aF4.882585324625503
aF2.7774370021947554
aF5.137172542722332
aF3.7578700793021147
aF5.614502696132434
aF5.461490970965465
aF4.78150998329788
aF4.179788333761657
aF3.7031524345916926
aF5.565894349876145
aF4.744572150030979
aF-3.8790813023059507
aF-5.998280405853138
aF-4.862586583672602
aF-7.073721929999714
aF-7.430649855603547
aF-4.791202327387433
aF-3.2027655825584023
aF-4.161977080618888
aF-3.8088279682999024
aF-5.181984826035859
aF-4.661937116838803
aF-4.61270847980835
aF-5.932664514929685
aF-5.38941228772012
aF-4.41992446645938
aF-5.124008581945168
aF-3.8759950195405533
aF-5.880757134874285
aF-5.027491602120691
aF-5.167152376563974
aF-5.551197770912893
aF-4.446092856700609
aF-4.69028395317014
aF-4.065946423741074
aF-6.557135010483422
aF-4.923614042911103
aF-6.045462595335643
aF-4.976024882715248
aF-5.429600740304609
aF-6.134551947339636
aF-6.424420093657513
aF6.300677688718205
aF4.011788222520634
aF4.782456023695152
aF-6.547240822815942
aF-5.529185268433129
aF-4.719814868779033
aF-5.243407018969261
aF-5.099268651739006
aF-5.054107220091459
aF-4.709232234319998
aF-3.23919113783574
aF-2.77563572300374
aF-4.930176450806821
aF-5.169064569427194
aF-6.396027644012147
aF-4.635408206248038
aF-4.3916824536090475
aF-5.867680236784275
aF-5.302725391201821
aF-5.512229911345194
aF-3.696643596858519
aF-4.10699330862041
aF-3.7202825670280397
aF-4.184043858690757
aF-5.127727632541557
aF-5.306211303161095
aF-5.421857442951892
aF-4.089418814790246
aF-6.690975422876627
aF-5.207502012195298
aF-4.2487830702073515
aF-3.3828426849682276
aF-4.2814430463446564
aF-5.201483028939227
aF-5.040555012302357
aF-4.803140134891337
aF-3.9095741243143864
aF-6.2890776175045335
aF-5.1163391951317525
aF-5.019410236891903
aF6.168533095373126
aF4.353720425577056
aF4.214683762556707
aF5.730113596142079
aF4.063062210783773
aF5.839446617409773
aF4.555578762985802
aF-5.432173124449846
aF-4.515819191669358
aF-5.1336591401714
aF-5.154943119608885
aF-6.004012113613229
aF-4.945256802056375
aF-4.8615674206806325
aF-3.8020606730612894
aF-4.655654275543741
aF-4.20131488767536
aF-6.28682254914169
aF-4.311896363841035
aF-6.547823570144468
aF-5.948590202928928
aF-5.129561321324147
aF-3.108857575413082
aF-5.676675599306295
aF-4.409948615129184
aF-4.231816961413145
aF-3.824903004747747
aF4.9042490881703245
aF5.074469881722866
aF4.759584332682637
aF3.8715268961211153
aF4.279468605584672
aF5.885330864764945
aF4.67894153953544
aF-4.680607107479527
aF-3.347034745901351
aF-4.133261316831541
aF-4.241530508288067
a(lp1
I13
aI58
aI85
aI96
aI111
aI137
aI157
aI175
aI187
aI197
aI200
aI224
aI233
aI241
aI314
aI316
aI328
aI352
aI392
aI423
aI426
aI463
aI470
aI490
aI497
atp2
.((lp0
F6.083704348681896
aF5.481526928778572
aF5.702081372503757
aF3.5134996114067287
aF-6.009466684423015
aF-5.146349090799231
aF-2.925375849813681
aF-5.345681199415604
aF5.721805866047724
aF5.438303477009092
aF5.444879998726295
aF5.129871691197259
aF5.051930999508835
aF4.403559052981396
aF6.928426563408518
aF6.028610187989354
aF4.823671971851185
aF5.197258401192039
aF4.056003318860045
aF4.707540566432859
aF3.844520017778046
aF5.300064611293167
aF5.74147721509639
aF3.421993280503136
aF6.683283955992976
aF5.656051472936019
aF5.085172194059741
aF3.6381906747726864
aF6.236303801549162
aF6.105329101377334
aF3.18909886987029
aF4.855297813645477
aF6.041939138136355
aF4.541753989034198
aF4.610732454486347
aF6.113247597901012
aF3.8052724455788933
aF5.684673525966218
aF6.002253706814696
aF5.5098034886931
aF6.483147511898828
aF2.6393111206783595
aF5.907543704373153
aF3.863899480712492
aF3.3476057324464064
aF3.911532429785737
aF6.208342658134502
aF6.2741446864191115
aF6.233885147083119
aF-5.942214572168988
aF-3.2147026681489246
aF-5.815899162164781
aF-5.0441385345960486
aF-5.501916383910387
aF-5.259489351199322
aF-5.847153152090294
aF-4.803842265743596
aF-6.040324562501786
aF-4.74989461786924
aF-5.401222606893848
aF4.6713721763438745
aF3.7448940199120933
aF6.206071917853287
aF4.470791208022308
aF5.219972887662104
aF4.153469908200991
aF4.5597016299973046
aF3.9630915279685768
aF5.501912256499829
aF5.604349553875035
aF5.53088125341486
aF4.836358196815579
aF6.793307237819044
aF5.169689317720559
aF4.677167186806392
aF3.703386218020481
aF4.5764035528798495
aF5.112966102218161
aF-5.016849131433808
aF-4.615264607165699
aF-3.8730236412164825
aF-4.26763707983588
aF-5.2852138033488245
aF-4.665131159265332
aF-5.738813979511731
aF-4.586220099939839
aF-4.385674070230421
aF-4.693896889168898
aF-8.344270137928234
aF-4.791134136677942
aF-4.267178905856264
aF-5.701322461818205
aF-5.074370236067233
aF-4.872778940170886
aF-4.397956380139474
aF-4.648235063870073
aF-3.9556481863672395
aF-3.4068952873009763
aF-7.37460815905445
aF-4.39799927301448
a(lp1
I5
aI9
aI50
aI61
aI79
atp2
.