((lp0
F4.943270544812681
aF4.979252079032935
aF5.441197387991747
aF7.138050611951572
aF6.106268687890187
aF5.082270728723884
aF5.669361749809794
aF5.610002342163822
aF5.489838497096746
aF4.515307300969167
aF5.17724550368667
aF3.6506659391387686
aF-3.1598928587208026
aF-6.678938506487188
aF-5.023614990865057
aF-5.731383425085594
aF-4.348123505821126
aF-5.719943848371139
aF-4.620777262111054
aF-4.545247283000572
aF-5.043317563078012
aF-5.914112553670437
aF-2.7894220134203755
aF-3.701963013445795
aF-5.401356069201786
aF-4.66410710950344
aF-3.344266653432636
aF-5.2199702680514335
aF-3.8306870474557546
aF-6.342807934649555
aF-7.135043665410302
aF-3.398970340035042
aF5.931271314058077
aF4.240997724393514
aF5.4458507531343505
aF4.547392417413382
aF6.1208461967738845
aF4.694231878156392
aF4.910126626017851
aF5.546673612822667
aF5.832727142826295
aF4.33575104117381
aF4.427417468388779
aF5.681608432252976
aF5.328942804551471
aF5.90412280071326
aF5.057420166934459
aF4.585185109534066
aF4.940930661377949
aF6.304019386386417
aF4.158523672702788
aF5.120811653505302
aF4.362960670229163
aF5.647637949784568
aF6.429783626803314
aF5.626319319807945
aF4.931968780775722
aF6.046667620834638
aF6.050651963039626
aF5.05873228813422
aF5.3381303836464875
aF3.522381937203385
aF3.7915480810065905
aF5.382661149655169
aF6.0243280175560985
aF4.847392412069146
aF5.054501851843667
aF4.502705379878315
aF4.6487983962743655
aF5.1366649856267745
aF5.814055989797356
aF4.844423624649128
aF4.325320507385368
aF4.467616714217799
aF4.432583338626366
aF5.264675344290887
aF3.7127523681095655
aF4.508031042585204
aF4.434954969970235
aF4.9446430171764595
aF4.495072679030842
aF3.498185619462441
aF7.606197933338273
aF6.459988156898293
aF5.762673652402153
aF3.796677611811737
aF4.029834240611541
aF5.920172223262897
aF3.464292130032459
aF5.850206798480281
aF5.117604474567686
aF-5.085968590576716
aF-5.267069150767762
aF-5.70548454193286
aF-4.727486833347725
aF-3.8792597496100387
aF-4.933531101707785
aF2.67401982242659
aF7.297959360226993
aF7.221112123434762
aF4.101038711185002
aF-5.981840037830864
aF-4.771664000832762
aF-6.606758043685907
aF-6.067021264683055
aF-6.090818373706437
aF-3.5681025617287245
aF-5.2412644436889515
aF-5.479184125615924
aF-5.012494624841601
aF-5.687070101340497
aF-4.017343620221574
aF-6.7301871046307085
aF-3.6438206721405195
aF-5.698516549817337
aF-3.4862490375856146
aF-4.894727501233817
aF4.589277212329272
aF4.777932077062377
aF4.374337717038224
aF3.870901381712967
aF3.5207009571993133
aF5.511297397958395
aF4.900764743617984
aF6.273988814112466
aF4.517293363003088
aF3.384206889577647
aF4.233254376164376
aF3.579400419492001
aF-4.687115014643011
aF-6.248148611219172
aF-5.373657484942927
aF-3.3901657307363404
aF-3.319411197791948
aF-6.151652477768159
aF-4.62392089279308
aF-4.911286333812816
aF-6.366587589695805
aF-5.9681781810945305
aF4.9156839616240635
aF4.079443005621075
aF5.374041606904644
aF5.483914931464644
aF3.6509901637773154
aF5.029054023672462
aF3.562771182566115
aF5.142245039140289
aF4.6282883477177945
aF5.665446842284379
aF5.717691205077353
aF4.925427591174708
aF5.020116112755297
aF5.304473590801474
aF7.126321308061495
aF6.339200171247174
aF5.512665953234077
aF5.906075312027165
aF4.8496979119074926
aF4.492123071296563
aF5.747600249059285
aF5.685565929210606
aF5.340732764783594
aF5.584405680251753
aF1.86985819880447
aF-5.1077469539024705
aF-3.917991657537126
aF-5.723219589862181
aF-6.657044593637738
aF-6.248290022020551
aF-3.703447814755903
aF-6.320553389262041
aF-3.8050736747867617
aF-6.208979301530017
aF-3.9313927450544597
aF-3.51231030569305
aF-4.509535119030741
aF-4.147616055414706
aF-6.3324415923741615
aF-4.582186255158063
aF-4.232390145425164
aF-4.889470897700525
aF-5.036918000381706
aF-6.429800747036454
aF-5.65886129748718
aF-5.893774471722152
aF-4.220326062679103
aF-5.647718771453487
aF-4.8257903004387375
aF-3.6704310889122844
aF-5.384923412022523
aF-4.909691369331212
aF-5.647553178202886
aF-5.086420869363617
aF-4.542073207429162
aF-4.007119478739047
aF4.546884447993566
aF6.550811788752072
aF5.229883411902295
aF4.85195113490446
aF5.27398947935121
aF3.4958873049942905
aF5.128412347015113
aF5.479453902764314
aF5.482781983887122
aF6.348621088747185
aF6.220655801830748
aF4.943403024459579
aF3.86832571947164
aF-5.845205860465675
aF-5.919530902697436
aF-5.3155952279980685
aF-4.766385019009109
aF-4.09643316789713
aF-4.17569439883324
aF-5.423231178928591
aF-4.297578819043801
aF-4.015671640140015
aF-3.627204590952601
aF-5.528655859749344
aF-6.028414044389138
aF-4.810206114552504
aF-5.233236897453855
aF-6.171644025462218
aF-3.129961049239299
aF-4.99663586149296
aF-6.95725891211347
aF4.537776240238209
aF5.583717177419535
aF5.222966190524145
aF4.074795616319868
aF3.881491620239526
aF4.829170953572308
aF5.484351896988821
aF5.398593745759277
aF4.485281232186754
aF6.646193449345365
aF5.974400382194236
aF7.871483040496959
aF4.886599909789867
aF5.753501418640421
aF5.574839298523011
aF3.429274925739128
aF3.9672234493282383
aF6.432122206352497
aF5.61058184752071
aF1.8568498149755497
aF4.6402126010364935
aF4.971334039973037
aF4.518460013537272
aF4.736843083545748
aF5.295027961641684
aF3.627787215693643
aF4.968406576448576
aF6.389992686922304
aF4.136889456090716
aF3.6636900637198067
aF3.357153881643394
aF4.7289666082884265
aF-4.659481169673647
aF-5.510366441620829
aF-5.413921426979198
aF-4.345905099789098
aF-4.84525992137192
aF-6.045325646107662
aF-4.471244738814458
aF6.666087866960582
aF5.643503255380507
aF4.268751242071193
aF5.752979631549097
aF5.296570440350349
aF6.121641115882259
aF5.246531222818608
aF5.083501932083941
aF5.469153252052702
aF5.853262324247074
aF6.077942218008198
aF4.038396366036094
aF4.380506707703129
aF5.449735339070031
aF5.17177409235905
aF4.01572186516035
aF4.3456913545642575
aF4.969301061856993
aF3.980768249746876
aF4.663675671784309
aF-6.339245336145963
aF-4.906602978970991
aF-5.2240894155375885
aF-3.341144467958442
aF-5.682076267760389
aF-4.6430215555483745
aF-3.498232527557648
aF-5.524841717140232
aF-4.685241739356834
aF-6.147096388129911
aF-6.221189501332299
aF-5.3161727652567565
aF-5.6634592027497295
aF-4.0652692293208235
aF-7.224981518970332
aF-3.0385445949468792
aF-4.376769329431241
aF-7.7711023515640285
aF-6.492428427545544
aF-5.951832759503923
aF-4.6677418209400825
aF-5.5233898738872025
aF-4.516586162718393
aF-3.463358080654194
aF-4.041427475013833
aF-5.1380496237965065
aF-5.330982470277691
aF4.144318679064828
aF4.533577613835029
aF4.885497443341152
aF1.8856173553756697
aF6.18802111189905
aF4.309590402224007
aF6.819817553539245
aF5.1954454999527675
aF4.560537112951645
aF6.509160404829995
aF4.515839656975275
aF5.905909698818773
aF4.213668930417048
aF3.5848170782890834
aF-6.267062249124335
aF-6.35757627855569
aF-5.200003120649158
aF5.617346100256329
aF4.97732260708108
aF4.515928006669978
aF4.041571801881462
aF4.6848977455906935
aF4.181860770811147
aF4.057895411715567
aF4.928081295704628
aF-5.56479261515129
aF-5.207355395427204
aF-3.836389934754809
aF-6.202167365280575
aF-3.8737214490285536
aF-4.78903512009171
aF-4.809425758746037
aF-5.308144477683329
aF-5.409420865519493
aF-3.885565745972463
aF-4.800970358067775
aF-6.439429699229239
aF-7.694442884146745
aF-5.038362613061412
aF-7.066681716061609
aF-6.27927234372683
aF-4.558242411835529
aF-3.990510069640135
aF-5.68259610595442
aF5.9030226600722475
aF3.9094289507472304
aF5.4294628542050924
aF5.789107951760654
aF4.463300070742603
aF-5.571318810009028
aF-5.7873358684207625
aF-5.898243877476357
aF-6.786769323703211
aF-5.145596188443661
aF-5.649049273737327
aF-3.9817987064156326
aF-5.383555506953119
aF-5.804375354430709
aF-5.957557606748709
aF-4.799507713614861
aF-3.9930642136869237
aF-4.56501031262107
aF-5.560537583203605
aF-5.635996776793174
aF-4.88605617505911
aF-3.9962938210249694
aF-4.839116689861368
aF-5.455848332162064
aF-4.584052127943832
aF-5.559519900593672
aF-5.503482222491988
aF-5.523416158624658
aF-4.539720432629295
aF-5.900644577736968
aF-3.7093037702743334
aF-4.620598418889921
aF-5.071748298369802
aF-3.517068115766044
aF-6.115182007794112
aF-5.806837182896663
aF-5.928148939128898
aF-5.385861418445004
aF-4.8556547302044795
aF-5.856471685370761
aF-4.929008683255584
aF-2.639388305326646
aF-4.224867117522233
aF-5.982614409334795
aF-5.221055231917703
aF-5.321213153921891
aF-5.873151182868769
aF-3.641066948199464
aF-5.21260542549883
aF-4.872165274907316
aF6.037631673749696
aF4.321305406299838
aF5.320710816635822
aF4.421923416440062
aF3.579543660223882
aF6.217184441194637
aF4.397773852590977
aF5.300497425119912
aF4.273960556960479
aF5.174228023763902
aF5.305228806295089
aF6.057628028703491
aF5.048650645571088
aF5.7778915032004505
aF5.533892420419302
aF4.5227278810907166
aF4.5544383035657985
aF5.655277494776778
aF4.343861927535408
aF3.6031447858232806
aF4.624562685316921
aF3.2990366168096634
aF3.6005682227651072
aF4.547351634546869
aF4.721452254412181
aF7.276578813106195
aF4.360622671623052
aF5.119211681237801
aF5.797192298188959
aF6.216997069106224
aF6.49468107861927
aF3.55738806355122
aF5.589397862686263
aF6.921179488912992
aF-4.950905464721993
aF-5.097417669522101
aF-4.043255591148565
aF-6.673485789030203
aF-6.69877961053528
aF-5.827254703696255
aF-6.5006860287963315
aF-4.998022216287617
aF-5.016643380244373
aF-5.137001733563577
aF-6.237668852137869
aF-4.857285966046272
aF-5.1643087078062475
aF-3.770304049171775
aF-5.99555282403935
aF-5.926052437064346
aF-5.361735348951499
aF-4.8111401324431595
aF-5.643827408075254
aF-6.195558353173735
aF-5.824845955564531
aF-5.2210994095767225
aF-4.159763806556832
aF-5.381317241698094
aF-6.120709599003496
aF-5.502503213716135
aF-3.5413923450743203
aF-5.544042916239316
aF-3.979527995116267
aF-3.7509136355686143
aF-6.626752676341182
aF-6.21583967374383
aF-4.617056783608551
aF-3.3684667485386397
aF-5.357117074331053
aF-4.825482292382682
aF-2.539368329289729
aF-4.160294477145995
aF-4.901843428873138
aF-5.254562903313033
aF-3.868332030086006
aF-5.526016937790653
aF-5.6985602012592205
aF-3.914839280848132
aF-6.166700322595289
aF-5.020260239910718
aF-4.5152359026077535
aF-5.692995885512517
aF-5.415084578137366
aF-2.774544649500833
aF-5.328896910558392
aF-4.011073645056889
aF-4.14491546675399
aF-5.447590729394519
aF-5.398938917498091
aF-6.129518617805522
aF-4.461762583849435
aF-4.520705660775988
aF-4.451365113527859
aF-6.455376726327181
a(lp1
I13
aI33
aI92
aI98
aI102
aI118
aI130
aI140
aI165
aI196
aI209
aI227
aI259
aI266
aI286
aI313
aI327
aI330
aI338
aI357
aI362
aI407
aI441
atp2
.((lp0
F-5.18664864581377
aF-5.408510317984434
aF-4.182615864644136
aF-4.283295195414943
aF-4.4420076604833545
aF-5.885008289329305
aF-4.377640355070589
aF-3.624881119409081
aF5.593900146284245
aF6.402562746689521
aF3.64230727579808
aF5.3387462146885625
aF5.35127107931823
aF6.201476128278905
aF5.6584058577834
aF4.420671211128022
aF4.545573558480338
aF4.961386180659908
aF4.475451161579516
aF6.256058761294191
aF4.639014872244706
aF4.6422493838061145
aF6.068330633848596
aF3.7845987591521375
aF4.127758407111784
aF5.23274553688611
aF6.0027610950627786
aF5.6107412617035335
aF5.954992840799243
aF5.526140576044147
aF3.9935053183757083
aF5.443662660238337
aF4.629818942105881
aF4.893637661738104
aF5.2890629604931885
aF5.133459465656491
aF4.316380168775268
aF3.3768067671986017
aF3.9167801544007554
aF4.274649203755414
aF3.3140181571442997
aF5.859240499018793
aF5.748417543658343
aF5.674849538279057
aF4.732163000748743
aF4.908839835706852
aF3.909724924172483
aF4.433496247876622
aF6.2860647910719845
aF6.166851885870173
aF5.058011447081945
aF5.570823101685345
aF5.186500970472137
aF6.307851198112777
aF6.083120984387168
aF5.738414689459424
aF6.676208746750084
aF3.5863336188823665
aF-5.811511811118126
aF-5.381630478433775
aF-5.4228587562799655
aF-4.620650858979394
aF-3.9915799984476705
aF-4.492103619766887
aF-4.749650903942303
aF5.898460581166578
aF-7.149847215774512
aF-6.202019584528277
aF-5.852627670428921
aF-5.617223210683855
aF-5.319335013927671
aF-4.600739728645883
aF6.283483767820278
aF4.667434129383732
aF5.0599446864378175
aF3.3875882215450326
aF6.0086978272524245
aF5.115211013436628
aF5.694207171107669
aF5.046973683641483
aF-4.45170207867054
aF-5.981886709170618
aF-3.0515245649025617
aF4.579559728797695
aF1.873152440771062
aF3.696699440652712
aF5.143199690571343
aF6.390463663107516
aF4.7874740946207
aF5.365877255594216
aF3.976175994376934
aF4.6288369740362745
aF5.333078102075325
aF4.73757052592364
aF-4.919709220800678
aF-4.473922142655051
aF-5.082409959818303
aF-6.099065797317383
aF-8.42818231035651
aF-4.962980953885186
a(lp1
I9
aI59
aI66
aI67
aI73
aI81
aI84
aI95
atp2
.