((lp0
F-3.7715889945962875
aF5.443450392305259
aF4.614359931768696
aF4.659080879133466
aF3.4326634037169215
aF4.699232118385318
aF3.810593072481866
aF4.31004802978346
aF6.296117044907432
aF5.815584829213653
aF4.257644161924473
aF5.410122242206419
aF4.07486671976539
aF4.949641847446457
aF4.020348207307582
aF4.440245589655757
aF4.888616610050851
aF5.172195282397576
aF5.1498443408541625
aF5.174839557184587
aF3.8955957047812717
aF4.5757551601776045
aF5.256205838069443
aF3.8537011761201834
aF3.85157511034637
aF5.427615066372336
aF4.389491361683739
aF5.549091805207441
aF6.061776954467314
aF-5.205118315400893
aF-4.355401367234021
aF-3.656278188611413
aF-4.108723297604483
aF-5.336176426620473
aF-5.103605669281993
aF-5.363137651614805
aF-4.064119964249102
aF-5.44610662601631
aF4.4955176763228515
aF4.63526437096057
aF5.466862619856342
aF5.395663685770784
aF5.346254053759897
aF4.647117760648261
aF5.237156900683345
aF5.591327176899164
aF3.2314748474706807
aF4.325646170982153
aF4.994367215482704
aF3.5509066524054784
aF5.259470366595396
aF5.21344850159321
aF4.488648213400182
aF4.830615758613791
aF5.814619542769954
aF3.758462490373729
aF5.376341654774765
aF4.877054312811705
aF4.698030301965199
aF3.9033132858690625
aF4.602603082597464
aF2.9818483656331356
aF5.927904660944817
aF4.989566909375842
aF6.517595740480694
aF3.3557525337482472
aF5.475269540277677
aF8.493751056499864
aF3.728915963407558
aF6.608086871044432
aF3.4052403641383773
aF5.605863858702808
aF4.847317299467914
aF4.106775796093715
aF4.163508942101767
aF5.27497236412143
aF6.608060545556957
aF4.546551571979973
aF4.328357102990857
aF6.3490872759291035
aF5.122198556852287
aF5.285848810505654
aF-6.056729080952419
aF4.729158332329126
aF4.683964982746865
aF4.7068093160800775
aF4.7124212666755145
aF5.749344099888818
aF5.847507505470413
aF4.8997717272750085
aF5.004314813139116
aF5.304120192227655
aF4.5748890308167045
aF4.969271541994048
aF6.148335709474442
aF4.81379327756459
aF4.702258872499216
aF4.124758640311729
aF3.8183667511446204
aF4.192581145304766
aF5.0531054477182415
aF4.144733931812652
aF5.652290590450059
aF5.488893335713772
aF5.761353972216249
aF5.980123849542935
aF3.7722363381087107
aF6.9593141935597425
aF5.121758507171946
aF5.700048078668936
aF5.499427217969499
aF5.628513844854302
aF4.49890903802406
aF4.87946246164885
aF5.275140484913552
aF3.1909058302896987
aF5.885501665830321
aF6.915344811267161
aF7.779903201448459
aF5.796876579533426
aF3.5602815215830006
aF3.4673034785373194
aF7.511172339776545
aF5.967904244551113
aF5.39961395973214
aF4.275854345976081
aF5.37035079369308
aF4.692937374126829
aF5.208273480251234
aF4.81116261949134
aF6.6522266840440025
aF5.063023579997221
aF5.086190769817137
aF5.029896534947663
aF4.340444646006531
aF3.514436834004557
aF5.746834944163117
aF5.744082654597141
aF4.317900588209786
aF4.53270187130586
aF4.60827252916023
aF4.743033180550261
aF3.9945593921485254
aF4.9410825333312545
aF5.3815591505830875
aF5.132521450496948
aF3.3192109941888575
aF6.398919837431588
aF5.682816559964712
aF4.751146748943094
aF4.376531036020244
aF4.680962583100674
aF4.83855057646947
aF5.244238390118158
aF6.564206482583188
aF5.310866074489357
aF5.091699593681698
aF5.142605925651086
aF5.261544841281294
aF6.443085710524125
aF6.187867636437174
aF5.253420591291695
aF5.837781884581625
aF4.677918326672736
aF4.668735848187647
aF5.910560813242791
aF4.983769495603423
aF3.822299810039965
aF4.494694949742316
aF6.7783452472690096
aF6.995725806469878
aF4.911790364827316
aF4.672659587201191
aF6.622167093723004
aF5.304057604008201
aF4.141508452825561
aF4.336596527124658
aF5.632233155419393
aF5.7867811773393
aF4.121162528412679
aF5.007794750764432
aF4.943133384434725
aF-5.118617732223439
aF-5.504426474893033
aF-4.796485843933698
aF5.122111937911511
aF5.783208901326448
aF5.069056133944809
aF4.349749307842687
aF3.891921647881101
aF6.032672924667998
aF5.656912543484965
aF4.307227832206809
aF5.224883977736356
aF5.729303161845306
aF4.151774115916687
aF4.828655805444873
aF-4.642090330852303
aF-4.575757730839443
aF-5.457424096475982
aF-6.384988445092818
aF-7.043364987566543
aF-5.400600725884684
aF-3.5543534367385243
aF-5.859980417696013
aF-4.1330654644921285
aF-5.587981138141006
aF-2.729005170795431
aF-4.922922974556679
aF7.783237339219257
aF3.4449209185974974
aF5.693790696224324
aF4.7075710283356
aF5.788551427847506
aF4.7725110638421855
aF3.809905782154943
aF5.939263853686683
aF6.22821075629697
aF3.620994131832818
aF5.675784966403018
aF5.132902516890024
aF4.837535774941241
aF6.24614714122948
aF5.511570212128629
aF4.805217761215763
aF4.480359372895332
aF-6.166744477336456
aF-5.598291249651529
aF-6.2028697515194775
aF-5.364165033785931
aF-4.151400052781544
aF-4.559111506718307
aF-5.38989411031414
aF-4.348009087145749
aF-4.791988557599573
aF-5.246025600637928
aF-5.101952946275278
aF-4.811573217079989
aF-3.651804523996903
aF-5.902224594540366
aF-4.225368108494343
aF2.5090434858819552
aF5.29915131402127
aF3.679853826230259
aF7.305109441842698
aF3.9514214377788957
aF3.838142779657624
aF5.19207447020729
aF5.529670296949107
aF3.598792073820915
aF4.582506453546917
aF4.344353878141641
aF3.979706110819424
aF5.076640716007787
aF4.56416911605184
aF3.9771806894649377
aF3.820655293547045
aF4.200063973877766
aF4.0916655941220075
aF5.995523803073451
aF3.8811675353094306
aF-5.043503194151263
aF-4.176549156757539
aF-4.426548977501994
aF-5.132616166239045
aF-4.190509245402406
aF-5.51153431757783
aF-5.727681561637862
aF-4.8560979049248765
aF-3.5862773086881368
aF-5.454061302367246
aF-3.8720059991590965
aF-5.064982935795167
aF-6.338095627016586
aF-3.7918963220179074
aF-5.641978571759873
aF3.5184529388767496
aF4.309349611941482
aF4.62317186101331
aF4.424526481688348
aF-5.609372167123446
aF-3.8631999697450747
aF-4.803369233054216
aF-5.144066855022842
aF-4.292420766690115
aF-4.269669070042604
aF4.997578046829736
aF6.236671546307032
aF5.807837621641543
aF6.396335162406459
aF4.267521980583833
aF6.139368339287495
aF5.185205382167881
aF3.3626607981746193
aF4.0275505169186125
aF4.963026855727134
aF3.912783679407469
aF5.864895497733008
aF3.797006249711937
aF4.451684073063206
aF4.198085046670166
aF5.36294214349253
aF5.543870437469971
aF6.274153303023684
aF3.5661209669927194
aF5.019783614922774
aF4.788199871528069
aF3.920250974843648
aF5.674370997824854
aF6.144270728745454
aF5.317497168859928
aF4.97794675864794
aF4.040759903541382
aF5.058866043784114
aF4.728159336605686
aF5.63756592113032
aF4.838608754838599
aF4.920787142851625
aF2.4813568320094923
aF3.803317984006999
aF4.6470599128413586
aF5.242523206976104
aF6.287536595173434
aF4.9147956906292585
aF3.7583354056065996
aF5.979582776026191
aF4.652781731036984
aF5.264701405817785
aF5.501617815042002
aF3.482045709086303
aF5.0526986400026415
aF5.883502898483219
aF5.370856828344394
aF4.352431170025874
aF3.8864436398367963
aF5.13043194043198
aF5.0855218734050815
aF5.182333833716414
aF5.057129170310722
aF4.513033477514512
aF4.830407522096665
aF6.456690075888016
aF3.629235564730462
aF3.3345340282239855
aF3.8968495156496314
aF5.448554589690609
aF4.852311456280834
aF5.906421088240602
aF5.134227416328504
aF4.223214928288297
aF3.7549361492563937
aF5.505455711104241
aF4.327679102901321
aF-6.047885904040058
aF-4.336884557623953
aF-5.0183384627173915
aF-5.553386828206122
aF-4.892927477521735
aF-4.971539825284877
aF-5.6919326121708
aF-3.1005983645452235
aF-5.758553238861856
aF-5.698023839577873
aF-4.765292780096166
aF5.849532538046788
aF5.862904780421628
aF5.521550729618456
aF4.781489291706021
aF5.414622008206918
aF5.371228030100492
aF6.280096537809364
aF4.319652926311595
aF3.371422660037642
aF-5.30370338241355
aF2.4859196917565205
aF6.0740052474560295
aF3.672905221071714
aF3.937343589388259
aF4.3571017120689115
aF3.5892424904545495
aF3.5980434367233087
aF3.6017604798108045
aF4.678379340469407
aF5.798858921327446
aF5.0603731105570215
aF2.736840422834145
aF4.977709178390034
aF5.742042015479909
aF4.8567877771180745
aF5.814402550270178
aF5.11639721709394
aF5.527369827246738
aF3.162042875424406
aF5.10380406672777
aF4.755770339260573
aF1.9633013705885833
aF-3.2863259677809715
aF-3.9613768503126403
aF-3.945149574958834
aF-4.325821324980158
aF-4.054065974783141
aF-2.643546552855579
aF-3.2246173156515563
aF-4.938132759944975
aF-4.771907935022095
aF-5.244766416978171
aF-4.894952390703072
aF5.774723836341333
aF4.2044631657810525
aF5.016589498153288
aF6.599092638285847
aF4.122735746626761
aF5.774135947702593
aF4.86127023711273
aF6.317852554740478
aF6.979601754676367
aF6.771778932325826
aF5.31012383976364
aF3.261851193579327
aF3.1447748262507305
aF3.671060046723256
aF5.76350924912246
aF5.176401909372952
aF4.288581266044141
aF4.946449830639158
aF4.584859238115441
aF-4.881849076056004
aF-5.918550341943149
aF-5.203670347873428
aF-4.820188006511659
aF-4.352806033085048
aF-3.3334775375236747
aF-5.650777754025909
aF-2.949617664657829
aF-5.140670019492009
aF-5.603513092793037
aF-5.432657775637479
aF-5.13631984055487
aF-5.997103554605703
aF-4.567879799025037
aF-6.941492549213753
aF4.80822758655751
aF4.24419340461497
aF5.411217886124951
aF3.766673480688271
aF5.208238124895628
aF6.000964858299129
aF4.5205068977744345
aF5.835926796603398
aF5.79718465570444
aF4.04048246794606
aF7.064156577842602
aF5.029648981831876
aF6.8021489872045
aF4.069926992458201
aF4.890646308801356
aF4.912552689660085
aF4.910078553373948
aF6.0665624521825015
aF4.242089162067355
aF5.105855414389291
aF4.704868026570048
aF4.272076357642306
aF4.825594194546745
aF6.350015670640557
aF5.953640415547
aF5.4247936389729885
aF4.378979891216614
aF5.8950822550114115
aF5.715629684055682
aF6.6282404585762205
aF4.9927302569843635
aF3.4867941139519836
aF6.196393203689393
aF2.739334484663813
aF6.2978431731129465
aF5.422378552940087
aF4.19143910496655
aF4.21112837723614
aF4.384942086836428
aF4.151457659171881
aF5.885576803790093
aF3.889347945884688
aF5.193317118398051
aF4.434204241671299
aF5.489897632490454
aF6.678100959412345
aF4.988375911905436
aF6.964011228958884
aF4.370232672399719
aF4.592534332013655
aF4.419937712794194
aF7.634993939243903
aF4.726713379698613
aF5.757688384445799
aF5.351584704178566
aF5.054579777832821
aF6.227465849174342
aF3.7474754390816423
aF4.817017644804407
a(lp1
I2
aI30
aI39
aI83
aI84
aI183
aI186
aI198
aI210
aI227
aI242
aI262
aI277
aI281
aI287
aI354
aI365
aI374
aI375
aI397
aI408
aI427
aI442
atp2
.((lp0
F-5.031994104913457
aF-5.610623056822583
aF-5.4122790976376045
aF3.5184529504407926
aF5.6706452654288295
aF5.7154611489225875
aF5.272710430531964
aF4.957515979571781
aF3.4957623471579478
aF5.146036174798884
aF4.751594722005597
aF3.7073629408146727
aF6.453760683914275
aF4.63844394705374
aF3.5475939781910037
aF3.998062630747491
aF3.6748677458493604
aF5.045415979179967
aF5.110427920665196
aF4.0397868848784
aF3.1054887234749073
aF5.689983246731512
aF3.4718682276515684
aF4.884925336517755
aF4.27437598337866
aF3.352260078942157
aF5.092501398545524
aF5.342617703836013
aF4.778232130384476
aF2.876159824314785
aF4.8216165231592285
aF5.85179818274511
aF5.00143492394008
aF5.075493272886385
aF6.503132819355769
aF4.765131484316875
aF-4.909499585635155
aF-4.370922868941842
aF-5.628530208832746
aF-5.6122108350007105
aF-5.373522733348027
aF-5.270631530155955
aF5.239057010458083
aF7.675413565327117
aF3.9413077818527062
aF4.323772623766934
aF4.751952718225417
aF5.8999305669481235
aF4.4421450456892595
aF-4.519169577375135
aF-5.875637965713167
aF-3.9805626335862208
aF-4.204345419609365
aF-4.140570460036162
aF-4.467488292479127
aF-2.058377227300959
aF-4.767682718453635
aF-5.557550312889643
aF-5.5122267533113565
aF-5.6222307182754765
aF-4.584117663074674
aF-6.452844576477211
aF-4.782326669261771
aF-6.360847350506448
aF6.171992100704214
aF3.3327582153756357
aF4.112563704922086
aF6.741022252403173
aF4.042011877442033
aF6.265553784493331
aF4.750238165125817
aF3.963444652466715
aF4.426809797671766
aF5.977543892308461
aF5.213241674045044
aF5.578245411700452
aF5.9275771412848846
aF5.08242986731803
aF5.8303041605906225
aF4.3498986327681886
aF6.585075422345732
aF5.260532650961695
aF4.330843229844406
aF4.4232251100044175
aF5.804400766633762
aF4.149175847882728
aF5.556026406936834
aF4.209198279453245
aF5.08468592162371
aF4.703374465184674
aF4.637147533147032
aF3.839847923564733
aF6.233889314365978
aF4.190979737062389
aF5.286268582692593
aF3.717437403623496
aF5.6727564608468946
aF5.771155382975599
aF5.380763081867611
aF6.097326033362393
a(lp1
I4
aI37
aI43
aI50
aI65
atp2
.