((lp0
F4.609368193884737
aF4.454204355364392
aF4.19610814261124
aF4.90036706534557
aF4.246799820517353
aF4.9501722240242785
aF6.422381588835774
aF4.4408574502005065
aF5.556472085826686
aF3.6979210892094247
aF5.944504884224137
aF4.807100157945915
aF4.015525880330427
aF5.911678683374114
aF-4.675788175184265
aF-5.171227310892781
aF-4.10270752009009
aF-5.436575032716634
aF-4.928613103591264
aF1.8680142803125035
aF5.370626693488829
aF3.1775942369522188
aF2.8460200334729517
aF-3.1613361524309873
aF4.573992189605466
aF4.086058201727121
aF4.998626775034933
aF4.666264393526374
aF4.497293611685561
aF4.6862614683394295
aF4.813273866781106
aF3.81004688711435
aF5.181900661332053
aF4.802276730266184
aF4.208787439463553
aF3.727099923457452
aF2.3935506733161134
aF4.472882265414405
aF6.615573937241499
aF5.586902460448205
aF-4.76592915758186
aF-4.454367320101422
aF-5.78212687052359
aF-6.3185808832723085
aF-4.421846681863901
aF-6.251200117954657
aF-3.96975215265577
aF-5.506618309673855
aF-4.437295228079919
aF-4.501285288499531
aF-5.01375153886604
aF-4.91288973597514
aF-7.0486731768302615
aF-5.4510638703182845
aF-5.661116949867798
aF-6.800676236530634
aF-3.4035206510854437
aF-5.1264529268713215
aF-3.951075182974348
aF-5.274108436853444
aF-3.9039004671727566
aF-5.359983152180426
aF-4.127765270485487
aF-4.8842660210049145
aF-5.666911701605095
aF-4.940949098395275
aF-5.788922489960274
aF-4.718655216790607
aF-6.166462691171666
aF-7.9119044439296715
aF-3.5585779909662327
aF-4.665825309070228
aF4.925897257371092
aF3.7791949054679073
aF4.569487011878614
aF4.64785932281186
aF3.550891644338636
aF-4.443368577057602
aF-4.742235101628024
aF-5.466318927060932
aF-5.179550010505757
aF-5.589392842303183
aF-4.858755515327301
aF-5.9515777706368915
aF-6.152768214142495
aF-4.380013179716386
aF-6.138520013503146
aF-5.0723204402136135
aF-2.9703905955740186
aF-4.502710061899075
aF-5.42323706849849
aF-6.567266910860508
aF-4.362116680855117
aF6.35222095753925
aF6.257237963827606
aF5.2028048978288455
aF5.02522014945981
aF5.824808682060791
aF6.097171224668869
aF4.916673223758599
aF5.079164020998198
aF-4.22428885028555
aF-5.209045022707223
aF-4.177229550098632
aF-4.818122114650842
aF-3.1888184897818217
aF-4.775664612849182
aF-4.960411222398991
aF-6.29292292954588
aF-5.461919434149732
aF-5.782708226769056
aF-4.285482039762073
aF-5.877828227164181
aF-5.191356919975725
aF-5.626159632413662
aF-6.116540863140466
aF4.346145741238352
aF4.846012392369062
aF4.180684836475425
aF5.415218991400953
aF4.257510302549557
aF4.258184461108238
aF-6.016969442782087
aF-3.511195435959549
aF-4.336225474048652
aF-5.1797345651183315
aF-4.316783107874078
aF-4.979604969683835
aF-5.010337087534404
aF-6.015226184705485
aF-5.295209173966035
aF-4.072819103914414
aF-2.924677498541341
aF-3.955590133956269
aF-5.737456046928802
aF-5.6041775044439275
aF-4.964039966077165
aF-4.803507993743641
aF-5.927687686614393
aF-6.296639304252227
aF-6.58146254587727
aF-4.037895856755042
aF5.739838640449497
aF4.421722281223776
aF-4.864496877738632
aF-4.804468211181685
aF-4.474916987539909
aF6.784169514250003
aF4.547532638396786
aF4.66701497503026
aF4.480111900249236
aF4.2546421641413215
aF6.585584853250603
aF5.120195768718583
aF5.7285634489970265
aF4.618063828530732
aF6.91639068683989
aF-3.7432602415967478
aF-4.610939094993159
aF-4.470650223556018
aF-4.77181770588094
aF-4.070696836445826
aF-5.3332939691158705
aF-3.998473152654129
aF-3.647912633810149
aF-3.1798624238212367
aF-5.507088237561249
aF-3.5681250884303237
aF-3.0294006138978595
aF-5.721883699585531
aF-3.5173540248289656
aF-3.852143367384998
aF-5.520173650342417
aF-3.8156995190044922
aF-4.70811747734774
aF-4.479239858284894
aF-5.418377626771976
aF-3.995388850469375
aF-6.142534986579037
aF-5.515234732976498
aF-5.8615446810222815
aF4.16723393636871
aF4.191355877401085
aF4.543565268227075
aF4.009548644530121
aF2.468646100401627
aF6.17551059871227
aF5.3337521131168435
aF5.25804852017449
aF2.723489932707591
aF5.2981250128939
aF4.2512894611753715
aF4.4873013438925975
aF5.187993236878384
aF4.353263513516993
aF3.6090092945062064
aF5.6219952807916895
aF5.183967319619477
aF5.372228130392977
aF3.236634042414975
aF5.425645096970816
aF4.808622033726389
aF3.9157740812458606
aF4.512501669822278
aF4.485299015606471
aF5.3497053755976856
aF6.122820665705126
aF6.996946052654718
aF6.581255989631079
aF5.50271460217272
aF4.796213776020385
aF6.066173714338411
aF4.347844735370784
aF5.96173869491019
aF-6.121422603416059
aF-6.8559862576119155
aF-4.610198349088912
aF-4.9261184399493345
aF-4.349332403132775
aF-4.679388966495597
aF-6.250016957881643
aF-4.874675435867824
aF-5.302926156864197
aF-3.9820454435086514
aF-5.274939215968847
aF-4.9585802327643655
aF-4.753796927885697
aF-5.709917880977163
aF-4.026070740357219
aF-5.13639894710594
aF-4.628723956267626
aF-4.858475767889502
aF-5.255445579196741
aF-5.9316678005590875
aF-5.582507924543467
aF-6.334188024547769
aF-4.953941897084569
aF-4.84711797703833
aF-5.696993510271369
aF-3.7675446846347214
aF-4.0159640645346135
aF-4.193548470703859
aF-4.034378533167815
aF-4.636587867824705
aF-2.8286940336600446
aF-4.0665691222618925
aF-5.423370959667013
aF-5.673999637375411
aF-3.1769093497081227
aF-3.7882618939514714
aF-5.469027819269118
aF-6.928067998076899
aF-5.542831977670177
aF-4.250283127819888
aF-5.536492742868369
aF-5.347242684218792
aF-4.686463140505854
aF-5.428096420634769
aF-5.017659826120233
aF-5.04948282409519
aF-4.197976769300652
aF-4.945655406875531
aF-4.922561763534344
aF-4.644784662056588
aF-5.043624924111691
aF4.247494074197847
aF4.54630839068171
aF4.921554462359641
aF4.9484822016350485
aF6.099416212225911
aF4.4083868261490275
aF4.5334383806149
aF5.506637996663017
aF-5.865257328920693
aF-6.387286792404065
aF-6.162581421560995
aF-0.6636417605276064
aF-5.21566705895927
aF-4.37930625049014
aF-4.737260226743441
aF-4.735359100516383
aF5.544266035609115
aF4.789412614523359
aF4.684591876044099
aF7.288040159133901
aF3.7310680858075465
aF4.3193260971982514
aF4.878221173173496
aF4.109139467979717
aF5.92480528818974
aF5.384322578277162
aF2.613655750837878
aF4.337609582166242
aF4.220980290026432
aF4.691589030616955
aF4.858473743248407
aF5.8859154418777475
aF5.0730501581582885
aF4.6852445229942505
aF4.37448867953464
aF3.80039511048785
aF5.721373220560362
aF4.978157048246477
aF-4.909485597510009
aF-3.4974012054896306
aF-5.036173444908132
aF-5.167912686121032
aF-4.329917275118407
aF-5.616206651953005
aF-4.775695601412316
aF-7.170111725279625
aF-5.434107505805518
aF-6.523143009514739
aF-5.258326196451734
aF-5.922963014091671
aF-7.6900817430596256
aF-7.718795484176281
aF-5.642788563501041
aF-3.5628952162423895
aF-6.5572333644308785
aF-3.7772116406421983
aF-3.5546227955429908
aF-4.75878421071018
aF-3.99795128196006
aF-3.5005128428301235
aF5.072813182278168
aF6.391108911024895
aF5.586711801715861
aF3.3451506154881336
aF5.964948113252458
aF3.9200723429696307
aF4.34054313415655
aF5.016969603345176
aF5.403378773491473
aF3.6670239632370016
aF5.284446905687136
aF5.223436724889505
aF5.221940162944981
aF2.9235606738392708
aF4.22204680501398
aF4.172014969731975
aF5.395376368825246
aF6.676954949581006
aF6.086793712465067
aF5.4215821208876305
aF-4.422305484387346
aF-5.7148633490370555
aF-4.525751544057179
aF-5.4654586834499
aF-6.6893334232093835
aF-4.86663479618879
aF-4.36954772994104
aF-5.054313543177432
aF-4.530189169788222
aF5.0552973393710445
aF6.027955710873053
aF5.691816587271615
aF4.787762138306964
aF5.239317443429804
aF6.255607933084077
aF3.0558333742598434
aF3.542119564175861
aF6.976806123460634
aF4.297238643257301
aF6.623046311913237
aF6.018512925193025
aF2.9901687049303796
aF3.9329773364208744
aF4.5386075798303365
aF6.10168929706202
aF5.727177814881504
aF7.05009266543467
aF5.066222504198123
aF3.8338888684453307
aF5.3577028588063165
aF5.238957216158549
aF4.270719807661328
aF3.812078731292938
aF4.0916944832241455
aF4.484223198305161
aF3.8623956468677827
aF4.796047937909894
aF5.5555536396176155
aF5.330315555998056
aF6.431424037770032
aF5.491927201879192
aF4.329321583129833
aF3.321089679665377
aF5.711796557069184
aF4.987415955457732
aF3.716077238440551
aF3.4077179263168227
aF4.974802644015005
aF6.225750904089104
aF7.129866491772065
aF3.7610391478483347
aF4.488714875077434
aF5.736552514385055
aF1.4353611576209389
aF5.37792357737593
aF4.797643816515558
aF5.741344234311825
aF6.481365656091039
aF4.690926113199511
aF4.546033327249705
aF4.490948117073753
aF5.110788032929863
aF4.441166680467508
aF6.283085167194525
aF4.600467132480157
aF3.8432044113688755
aF4.872908579459444
aF5.172964935645695
aF5.60844194270836
aF5.013642485321017
aF6.279381791682336
aF6.731166615776907
aF4.186522834065407
aF4.428594753495379
aF3.6526265776505635
aF6.248606308814756
aF4.811900724020496
aF-5.526820129869451
aF-4.857639105221573
aF-2.655355327527746
aF-5.518018028401161
aF-4.799785720976305
aF-5.340840197014791
aF-4.823713164826081
aF4.619919356197576
aF4.925365823448316
aF6.993634767862171
aF4.867208915194016
aF2.568600934262226
aF3.6238879463199334
aF7.105480439808323
aF5.633283501020621
aF4.592010544873156
aF5.64067813083375
aF5.634659727190979
aF6.485915985549219
aF3.0216955855579215
aF-6.748318189164181
aF-4.749745812769945
aF-5.438882565521371
aF-6.627907097892884
aF-5.343376747309003
aF-5.150264928041016
aF-3.766815481029881
aF-4.2519784940080445
aF-6.73775730916454
aF-5.207287623833604
aF-5.595350933270047
aF-4.255444544116898
aF-6.797382183604958
aF-2.762758200158997
aF-6.4761718933879
aF-5.727134709922497
aF-5.664170271117955
aF-3.365997811967879
aF-5.940359193642282
aF-4.707772113122913
aF-4.622223910032242
aF-4.426581596281285
aF-3.0295164961125707
aF-5.219313504254912
aF-5.564559286741101
aF6.441833404520444
aF4.235532830912522
aF3.810078740233851
aF5.197740396598803
aF4.067446356054558
aF5.248568147498939
aF5.509307053683466
aF4.666400911600632
aF5.33634729089901
aF7.671655173066821
aF4.5471540094592955
aF5.886110790282731
aF5.98115388239763
aF5.000342397828646
aF6.808980698245788
aF3.609164404458461
aF5.2758662485998356
aF7.174844208169014
aF5.637134941427527
aF2.674672514522076
aF5.038009498718707
aF4.62531935208739
aF4.756129425424726
aF2.439732552959559
aF5.321902868452701
aF3.917398664590765
aF5.054467189813573
aF2.9588599590148807
aF5.861948005134634
aF6.178965537339467
aF2.9514452664482262
aF3.051504896135141
aF6.2315660932832735
a(lp1
I15
aI20
aI24
aI25
aI41
aI73
aI78
aI94
aI102
aI117
aI123
aI143
aI145
aI148
aI158
aI182
aI215
aI266
aI274
aI282
aI304
aI326
aI346
aI355
aI423
aI430
aI443
aI468
atp2
.((lp0
F7.642089946865792
aF5.322617636735246
aF6.303172020892407
aF4.648076755354018
aF4.139999682135606
aF4.788883615461728
aF5.097409323441039
aF4.33802389763501
aF4.82982562094011
aF5.133494979866211
aF7.125710091786589
aF5.243621312509237
aF4.185967532620059
aF4.6970031231144205
aF6.647102320296327
aF6.143085210817211
aF4.048784474978488
aF5.547224434360101
aF5.78088517970772
aF5.30224945243629
aF4.355531487947895
aF3.647739948801491
aF5.839003986999862
aF4.65138887383829
aF5.692110344096439
aF4.731321226048004
aF4.2470913190419015
aF3.590709473282513
aF-5.441271809673802
aF-6.555805431736003
aF-5.133067725946454
aF-4.306823300889172
aF-5.104256754072665
aF-5.59046132118043
aF-4.763518373840979
aF-4.907993797061374
aF-5.389562321529266
aF-5.027645220436244
aF4.333820088042219
aF6.935225025510573
aF4.900782526922924
aF6.171827596496378
aF4.81885955832955
aF7.0858439083137235
aF4.6796735982802025
aF3.832574369916239
aF5.7299571198006785
aF-4.9440701397369935
aF-4.142137926540437
aF-3.7232584506294493
aF-3.8263242109780755
aF-3.8297673479459187
aF-3.139512779911778
aF-6.5615115508149575
aF-5.940469904783226
aF-5.330200922644644
aF-5.462205729735151
aF-3.0335094938006355
aF-4.25491736250347
aF-3.3763668005598957
aF-4.983718744231496
aF-6.086560926715363
aF-5.766468768658351
aF-4.29872804629258
aF4.064140392336703
aF5.276086945136782
aF5.4985647512835705
aF5.23022938131146
aF4.6231548381952825
aF5.85937201018512
aF6.059701882175782
aF5.026736409088998
aF4.3053340513428155
aF6.042060575994161
aF3.8991677222405174
aF5.264726584292746
aF4.880468561068584
aF5.766589781957291
aF5.294073002820468
aF5.03107477160551
aF3.9278656605243794
aF6.976626979401406
aF6.076051780969814
aF4.375340433956531
aF4.982530961674614
aF6.154988823320901
aF4.55770175673028
aF6.37981084309419
aF6.052867299135974
aF2.8320514228829996
aF5.927134204097198
aF4.103919332228594
aF7.201615304561393
aF5.683695030774333
aF4.735687336063477
aF6.590804301163079
aF4.436070249916642
aF6.264257160650335
aF5.354646600735593
aF6.351544503998987
a(lp1
I29
aI39
aI48
aI65
atp2
.