((lp0
F-4.230101725519545
aF-4.220978100811105
aF-4.265548953341876
aF-5.1938153155208635
aF-5.429467656634281
aF-5.2027918102566675
aF-5.488760267005386
aF-5.766816188986032
aF-5.347582447215138
aF4.193547957887616
aF5.0766795578220805
aF3.105246852543319
aF6.0932101242711045
aF3.1840882878025725
aF-3.7358761745861875
aF-5.679952337279634
aF-4.6247612604769825
aF-7.293080277578467
aF-4.994120153575424
aF-4.628983046318299
aF-6.981649340193339
aF-4.58445177942281
aF-4.629939988989859
aF-4.500388951584554
aF-5.877558344916153
aF-5.437550716011754
aF-4.8234557668768625
aF-5.677367425826247
aF-4.862143473161114
aF-5.260463182032993
aF-5.1672229755126935
aF5.264582388388421
aF5.0012422821545295
aF6.184783819862538
aF4.229963435076458
aF3.212787776499317
aF5.586664573342503
aF5.018369169905286
aF5.91266556602735
aF3.3898147873167153
aF5.450063447270376
aF6.510954013393126
aF4.737199570852541
aF4.847192320193717
aF4.037389212334158
aF4.517494195579825
aF4.364926098426037
aF4.90130141522717
aF6.07491877533605
aF5.437043737977731
aF6.437315299901009
aF4.771113756223973
aF4.967662398601578
aF5.358988695842637
aF5.974080271444632
aF4.432448476730663
aF3.362944599627545
aF3.8819261593463272
aF5.00214973652216
aF6.449289153934752
aF3.361534762822121
aF4.632354462927375
aF4.6177705469304025
aF4.887312941860868
aF3.6443512970815624
aF6.2507148252717135
aF8.151514113286746
aF-5.161321116035637
aF-5.487966597961307
aF-2.7584224097963754
aF-6.848566130054249
aF-3.4579545771207956
aF-4.080953109316384
aF-5.048824902627096
aF-4.7887853899409665
aF-2.5354165596722247
aF-4.52042983546431
aF-5.532647092087764
aF-5.434528924669558
aF-4.667023244358297
aF-5.050735459535179
aF-3.726031268626433
aF-5.875888880702682
aF-2.529680850223773
aF-8.22120611345898
aF-5.322191157978084
aF-5.4906078859063445
aF-4.924761336163954
aF-5.785907598927628
aF-5.959936449842944
aF-6.543454401147741
aF5.459168754048419
aF4.9924812622058745
aF5.391383024343127
aF5.392834625268733
aF5.0861853715548255
aF4.612361791433691
aF5.73566750739191
aF4.195735398745631
aF4.576377245956
aF-5.653893745102213
aF-5.740811295388332
aF-3.515989975169327
aF-4.880640525755755
aF-5.685240132489634
aF-5.130142502168175
aF-4.509302905534444
aF-5.0285199459100065
aF-3.625209927866428
aF4.206167726685133
aF3.950464854418913
aF6.576243264476449
aF6.393335118530723
aF4.626233417552747
aF5.1416976645404375
aF3.680248888268056
aF5.882469529906308
aF5.513832609658995
aF6.589776672692338
aF5.537752973522214
aF4.708535964242578
aF4.660689714227735
aF4.245756250348875
aF4.277089497356408
aF6.462835129036062
aF3.901232820761402
aF4.875756640092995
aF3.7631301801733152
aF4.771810822886341
aF4.999277319230033
aF6.497243826903272
aF5.57775675670945
aF4.755241846230455
aF6.777612712204304
aF4.3573198617814315
aF3.0011274008972464
aF5.36567265018756
aF5.8083564009049935
aF4.58455462274483
aF4.963216165210525
aF5.000730173599396
aF4.948810120788618
aF5.188290596051078
aF4.581598777323969
aF5.7088725099557305
aF4.074344846836062
aF2.977801663056034
aF5.154998118544916
aF6.2205453569352835
aF4.57963301390709
aF6.419555005924498
aF3.918485090958847
aF-5.9363238989701665
aF-4.998199975799786
aF-4.512300106730153
aF-6.235554246690235
aF-3.946448451802759
aF-4.348266592035956
aF-5.510406866200798
aF-3.8453776826042394
aF-4.250962601988443
aF-5.814609117317167
aF-3.5725646990412865
aF-6.694773049701757
aF-5.0444657811752665
aF-6.520325842523402
aF-4.531178834465945
aF-5.997792533096802
aF5.735811983792089
aF5.442051217265599
aF5.152961479383476
aF3.90783687545753
aF5.011052601899939
aF4.17299062049148
aF6.46409038066889
aF3.946912696983877
aF4.634571500749077
aF5.470688981457455
aF-4.587661065275272
aF-5.812729631424905
aF-4.7693627174833075
aF-4.153263923275878
aF-5.420142172946104
aF-5.87648151777072
aF-3.9970659033887093
aF-4.5855333423031235
aF-4.57035106552511
aF-4.836225945359383
aF-4.78761443021046
aF-3.1979714434618884
aF-5.013350287975006
aF-7.230932475235385
aF-4.108955179371195
aF-7.259402050869504
aF-5.392481648147448
aF-5.856126867944357
aF-5.305049097519261
aF-4.487099423715993
aF-4.772838767952989
aF-5.3476808615006215
aF-3.5950128591224146
aF-3.739306976321786
aF4.187593832636292
aF5.144601049891327
aF4.099838795170389
aF5.617918613348666
aF5.508130189180178
aF6.372355553935138
aF3.758554159605783
aF4.8351073729039
aF4.74304297060676
aF6.811974206705305
aF6.011122046924816
aF5.602529219492076
aF3.216108218024615
aF4.232106363694559
aF5.468560976118787
aF5.701791783169862
aF2.658247560494007
aF4.708501264951431
aF3.3668733028355677
aF5.179687761939444
aF4.851296707579941
aF2.91015772380092
aF3.1744090476604274
aF5.86875637143339
aF3.8352637293519583
aF5.595565023810939
aF5.487905158331292
aF6.235775344294101
aF-5.627871378950447
aF-4.867733413890256
aF-4.26254345392991
aF-6.357193137309989
aF-5.147068476331726
aF-4.167888655332403
aF-6.029830521167316
aF-3.820568853848749
aF-5.111790926570183
aF-5.168347087062617
aF-4.145814066525561
aF5.081438689029752
aF4.985234116074928
aF4.309251653748071
aF5.297335716976848
aF5.311464327957088
aF4.486746019381841
aF5.367416499809553
aF4.2824992634862316
aF5.604397796383293
aF4.1933845606863915
aF3.8585513101100206
aF6.528156059185056
aF4.281035908024345
aF4.906085197904579
aF4.799754247942165
aF5.936390739206663
aF5.349462882604091
aF4.022620088104771
aF5.1826725689963125
aF3.841594003944836
aF5.982793168198735
aF4.670525449623028
aF6.190109914615281
aF4.894676664681018
aF4.32997812524091
aF4.117474893523345
aF4.998475741691774
aF3.406528571263853
aF3.7303208225069686
aF5.894450522797922
aF5.505260021876263
aF4.347749876570791
aF4.841164627151071
aF4.055515264606973
aF6.035722917154752
aF6.064804623047592
aF4.190581556021005
aF3.3445652659348992
aF5.025257558011314
aF4.553527936010139
aF5.381302699128206
aF4.417484830045312
aF5.154364491792419
aF4.94931070451828
aF5.277335391836665
aF5.410209937281282
aF4.648361778356553
aF2.4603816146471704
aF3.6322766354770017
aF-5.6135182831819455
aF-5.4008210157248
aF-4.8243615002953035
aF-5.121047212532655
aF-5.622991456269614
aF-5.742281964858653
aF-4.6077391563493535
aF-5.936933530278361
aF5.632323337766364
aF5.576709022816864
aF4.879558857376152
aF4.813702241630659
aF5.138681185472763
aF4.181641265370476
aF4.370017661942944
aF3.870778450952579
aF6.666101183133588
aF3.695769881424856
aF5.792286824974699
aF5.366690546291181
aF5.022444798323819
aF5.161643142920051
aF7.083638209314943
aF6.568277684455353
aF5.6578125226917075
aF4.979652782037603
aF7.602066917190097
aF5.732136348645488
aF4.402096088648372
aF4.120425207701005
aF4.429154795650295
aF5.2029959823608
aF5.25032330762002
aF4.99230100971596
aF5.808723689919041
aF5.5526862708539175
aF4.219253488494509
aF4.792263487117769
aF5.810295897793077
aF5.43555079381265
aF3.5241356760644855
aF4.34207467501038
aF2.855143280818704
aF3.793887180752172
aF5.675481150416527
aF5.207101311627195
aF4.631091819542642
aF4.085527867985668
aF3.6632143220409312
aF5.079014480894525
aF4.505075923292797
aF3.5486801997464084
aF3.8202833498572115
aF4.076297456979895
aF6.192086130581014
aF4.771671877144718
aF-4.439463029936947
aF-4.64984074491325
aF-3.095204385465203
aF-4.182332846799513
aF-3.969404529142972
aF-4.801873407469639
aF-4.818949641466616
aF-4.755848623125998
aF-6.247447249784391
aF-5.439070108297045
aF-5.497380672109726
aF-5.609419987612722
aF-4.694229595769116
aF-5.5194159651539545
aF5.295581423388333
aF3.7951574808220983
aF5.887538151698059
aF4.213004906471319
aF5.55842879031664
aF5.279106740673262
aF4.871028177220398
aF5.181117238034999
aF5.329437232869828
aF3.981692783374021
aF4.403523301651426
aF5.206343834629911
aF6.180355695747858
aF6.026100581041109
aF3.8135839862300855
aF5.630993439453902
aF3.7557412649992146
aF4.940514397490809
aF3.934610392994773
aF3.9554266583337623
aF4.487688112449643
aF3.4649957170873362
aF5.915482951061612
aF2.961285425519033
aF4.207182991203893
aF4.097438999149803
aF3.9819523806710184
aF6.122093370784933
aF6.003864950097091
aF4.1464727994581265
aF4.6365797771698665
aF6.137363956010895
aF5.38120307121792
aF5.154526912685031
aF5.271291162736772
aF5.205808565634528
aF4.60282322208386
aF5.015696046259208
aF4.030150740414385
aF5.507165046556093
aF6.328881026031463
aF5.615604649921709
aF6.213841297589458
aF4.607425151965488
aF5.366005247597919
aF4.747086708703223
aF5.02604175626282
aF4.470502084077975
aF7.046049105721849
aF4.201072971782876
aF4.9052965303156855
aF4.118700208355104
aF4.675510151193437
aF5.630179168289775
aF7.027570889788212
aF3.7115860149187494
aF4.326780985874667
aF5.549069226477966
aF6.171809703659254
aF4.67175014278495
aF5.470619924726318
aF7.491823034243454
aF5.339243110349894
aF5.204067306848958
aF5.26408803063633
aF5.720485886417183
aF4.714420352195566
aF5.231475212046355
aF5.3784676924301404
aF5.813197271998568
aF3.715170497112326
aF4.418107475770991
aF4.013185958543173
aF4.367690373269663
aF5.172289265954129
aF3.077252555371578
aF3.807543149076109
aF5.939071687777752
aF6.317141719431476
aF3.078826323732907
aF5.367411562078644
aF4.656608885210086
aF4.967864390702375
aF4.206489078577642
aF5.91272645158875
aF5.412864758338118
aF4.957425424562728
aF3.234369248000953
aF3.618088650994326
aF4.179260154492875
aF5.563777551943367
aF6.1657729175883995
aF5.019639105739287
aF5.105303721529587
aF5.094408280816432
aF4.5288578397430985
aF4.755644886431724
aF3.3704878470357476
aF3.0922402324674434
aF5.834335651170724
aF5.280896388622768
aF6.415501025568528
aF5.559091175270876
aF5.175244518792334
aF3.0900688784979162
aF7.017370485186671
aF5.145959611173263
aF5.345447553175904
aF4.8823739534788695
aF4.015964417800988
aF5.172643502949122
aF4.873203977777031
aF5.264768126150991
aF5.542769447164446
aF3.636558727818363
aF5.595141572348627
aF2.9237671408779238
aF4.3635961776611865
aF5.75494441757425
aF5.598241865205072
aF6.521225136026612
aF5.040707192243596
aF4.82581525610094
aF3.6994415374400296
aF5.409222425764659
aF4.1594836463088996
aF2.803710986701814
aF4.374361870910083
aF5.388999411670425
aF5.883688225156875
aF4.0732447556352005
aF4.690412877458587
aF3.989613727445815
aF4.198098634376112
aF5.619061835103047
aF4.5514790476784
aF5.760400061156674
aF3.8155795921011806
aF4.815805699525587
aF4.799543084531434
a(lp1
I10
aI15
aI32
aI68
aI92
aI101
aI110
aI153
aI169
aI179
aI203
aI231
aI242
aI291
aI299
aI347
aI361
atp2
.((lp0
F-4.324976360147668
aF-4.910031392171511
aF-5.038657997847724
aF-4.175819384453824
aF-4.029184480428886
aF-4.310409295040137
aF-5.930567112695765
aF-6.7748015688865575
aF-4.308464007551936
aF-5.1112997227647465
aF-2.7910316713789616
aF-3.631957958062955
aF-5.379960458374471
aF-4.950633417542789
aF-5.225679388510197
aF-3.9990229017157652
aF-5.541389087647927
aF-5.080887322741974
aF-5.899414991226271
aF-6.49650095788466
aF-3.7804989274426815
aF-4.2982966205248125
aF-4.064652388043369
aF-5.346419554386472
aF-5.803338814103667
aF-4.2169206013379466
aF-6.546132484085306
aF-6.49564615835882
aF-2.0323603561806936
aF-4.196842036508803
aF-4.788075236592393
aF-5.85033293954816
aF-5.843350080683181
aF-5.29510324917163
aF-5.51155673334557
aF-4.756653639102089
aF-4.418134818708233
aF-5.681589983074434
aF-6.511968982445078
aF-2.3707049274383367
aF-4.98161449352526
aF-5.470126889730735
aF-4.314686887758771
aF-5.824199972428286
aF-6.143423188189488
aF-3.808167509519584
aF-5.720130000517531
aF-6.088870666235832
aF-4.365156649348446
aF-4.10648291729454
aF-4.5120714852439106
aF-5.147384459711923
aF-6.235249449721759
aF-6.099358886634037
aF-2.4365364454982403
aF5.34006379430875
aF3.445593164651908
aF5.735512809548283
aF5.769186363264774
aF5.43857920856706
aF4.947788379953335
aF5.149353179028505
aF4.645720869910283
aF4.16149138128038
aF6.1307782228455565
aF4.795953335386032
aF3.5984772113738615
aF5.277089031115961
aF4.886558292432666
aF3.578953492629567
aF4.919804135446602
aF3.5519560242253445
aF6.234330400141156
aF6.391873654752439
aF5.523285699006714
aF-4.564390474728433
aF-4.848686809618259
aF-4.137636961142564
aF-5.604223014612963
aF-4.866260217998545
aF-4.829730439566728
aF-3.6881828961768863
aF-3.852147042203003
aF-3.1256092662262587
aF-5.133090915321391
aF-4.20593486007498
aF-4.981869145287404
aF-4.18129884066235
aF-4.94125646557123
aF-3.8892479099174215
aF-5.885976705729498
aF-3.080751450487485
aF-5.003373989423777
aF-7.359884307126824
aF-4.74704358579295
aF-4.994413690980717
aF-3.8198955180390968
aF-6.1421925201836745
aF-5.03569084076815
aF4.53034177668438
a(lp1
I56
aI76
aI100
atp2
.