((lp0
F-2.6512711146824564
aF-6.368680255119172
aF-4.834110642109079
aF-3.6080832684405033
aF-6.225229887626541
aF-5.727629771492932
aF-4.89274669857652
aF-3.106840412818437
aF-4.064813295335371
aF-4.127856939125803
aF-8.397289313944665
aF-5.952201146498784
aF-4.011773327698449
aF-4.786747905544263
aF-4.669879585082628
aF-3.5481699304464254
aF-3.2397482758606833
aF-5.076476373555647
aF-2.586580898248606
aF-3.797321269534196
aF-4.795680124249458
aF-4.906443511141886
aF4.603293092417878
aF4.829528627071519
aF7.575409813081009
aF4.037205875456352
aF5.710199724835485
aF4.974217613759699
aF4.791842958794929
aF4.270691330207405
aF5.675348504170417
aF5.994380573154166
aF4.0870388882992925
aF4.366022858537387
aF4.547429891673216
aF4.655487232313222
aF6.305688208666975
aF7.184609883441815
aF3.986567178810705
aF3.9394902349588605
aF4.556258428322458
aF7.743944577215394
aF4.9474401307035505
aF7.489855637427475
aF4.784491195575304
aF4.671625937588331
aF4.60876274250049
aF5.165954144127064
aF4.630719827745039
aF5.696314635724165
aF4.908724437822468
aF6.221545385534323
aF5.996084033614511
aF6.132899713964415
aF5.483850882534363
aF5.179135551003166
aF6.040831769003033
aF5.514806465800057
aF6.373419806223832
aF3.879749590970526
aF5.388952407913769
aF7.046466061898844
aF5.048436422865292
aF5.691525302474112
aF5.845834252328152
aF5.233416169234042
aF5.343746747184048
aF4.5126774051393195
aF5.645711537169034
aF5.053270595904957
aF4.171168192642555
aF6.159692355064113
aF3.666900481907298
aF2.991649170259698
aF3.946568553368108
aF3.9879361779206004
aF4.932020212801099
aF4.453016470857215
aF7.198014469185755
aF4.751822079480306
aF5.7738571741616305
aF6.435325557325198
aF4.929795988401817
aF4.359573716509885
aF6.792772485145287
aF6.219626209846872
aF5.0482801863898406
aF5.504913960086965
aF4.561907613067936
aF4.929112322483379
aF4.538004833459171
aF3.641475283489674
aF4.988280219620932
aF4.582502002980936
aF4.7935413251161565
aF5.842045290658175
aF3.938824232674426
aF6.3914486124634315
aF5.3017850401844635
aF4.805148023055515
aF5.432630796220496
aF6.053807386681105
aF6.542337415888042
aF6.933340408928243
aF4.791709809740027
aF5.305070674707722
aF4.055481763861604
aF4.427276789694226
aF6.479436599834076
aF4.481965548333219
aF6.470859460099692
aF4.492938457273953
aF4.702510127141246
aF4.075419079826992
aF3.9466462255438146
aF5.323433512461143
aF5.528989267831536
aF4.9602412131181195
aF6.068470615147822
aF6.009120396150152
aF5.790779151642186
aF5.497750127135675
aF4.870476619192183
aF4.479979016016878
aF6.643460346979443
aF4.973711077702654
aF5.0860927147206745
aF5.71263107615011
aF4.931211638596712
aF5.531504889698057
aF5.525082739847942
aF4.518787917849277
aF5.420793816799476
aF6.881827550846412
aF5.7241678272758305
aF5.650404904192487
aF4.345837952638671
aF5.520719127594383
aF4.034127966773765
aF5.540796727355024
aF4.644206743539105
aF5.65744888021506
aF5.64467887282352
aF3.8946500467173992
aF5.413154529294345
aF5.48809408675227
aF3.7280392409924112
aF2.9883706361876237
aF4.046678956479047
aF4.731796582465531
aF5.951708676000974
aF5.6401218028685705
aF4.684919599397187
aF4.757283738281947
aF5.09825234484233
aF5.195155349461398
aF2.6502252265359765
aF2.2211209190285923
aF6.265068692594854
aF5.394248799451239
aF5.712305907164256
aF3.5950291143074575
aF6.403240405908725
aF3.771290596506627
aF4.156675388547949
aF5.175830888153293
aF5.255301364128104
aF3.8002946025533615
aF4.5482702290034895
aF2.9554480498204763
aF4.6418398475255485
aF5.097084775145766
aF4.28842902721889
aF5.553202077584325
aF3.9225970636753664
aF3.5559595647424147
aF4.155856282358149
aF-5.103900310326841
aF-3.7774066978353344
aF-4.967536430777388
aF-5.024979208012325
aF-3.52577368241098
aF-2.860775064716397
aF-5.673586746442232
aF-4.751203489485099
aF-4.41301137712779
aF-4.380375124774445
aF-3.8217513981884723
aF-5.631698366042425
aF-4.164127106216742
aF7.796499451249377
aF6.511012785378573
aF6.714059171342384
aF5.931911480652064
aF4.752234936495212
aF-5.1240734317447
aF-3.6359464653185105
aF-5.613110625508475
aF-6.257698826151469
aF-5.870451362900161
aF-4.379677419766361
aF-5.0734517424155685
aF-5.150372505587566
aF-4.638291175033256
aF-4.989137553623329
aF-4.58279739928395
aF-4.853687942558992
aF-5.909990954674566
aF-6.978625681911871
aF-4.416462055296572
aF-5.736056971039877
aF-5.624207961833577
aF-4.164657369005973
aF5.596431467956867
aF5.695349245837004
aF4.398103091120131
aF6.988098545603048
aF5.2781429584380835
aF5.989895135001601
aF5.179626751942831
aF4.1350877902595125
aF4.689005656479745
aF3.926076862910956
aF5.469225852434787
aF6.782820332685779
aF4.634025357836413
aF7.068386989612403
aF4.9003041653417805
aF3.4192567606115327
aF5.502227130847573
aF5.16601675629149
aF4.032283275851559
aF3.1142383870866235
aF5.598822901242973
aF5.056961146145597
aF5.465164911139927
aF5.016184727380812
aF5.742661488856096
aF5.597255041232334
aF5.314506012193276
aF5.395725986212106
aF3.4932588857148454
aF4.323440110542308
aF6.531194966930948
aF6.2773081057099125
aF4.061018847017937
aF6.174459451570536
aF6.150653213810754
aF5.073918403934853
aF5.806957820117443
aF5.097088623694653
aF5.496282674571091
aF3.776562612910695
aF5.513615994066351
aF5.933428181808595
aF3.9650768774306853
aF-4.800147826767938
aF-5.21114862021969
aF-4.350148067541372
aF-5.253736739851222
aF-5.915828310573937
aF-5.716976603424039
aF-7.294023278219138
aF-6.328523149863128
aF-4.484671906937594
aF-6.169546974611942
aF-4.269513745418921
aF-4.233565467088784
aF-3.68589809778475
aF-5.276151492236384
aF-4.012022764155676
aF-5.014064094504687
aF-7.8433628354056815
aF-5.4741347375284555
aF-4.902388490751195
aF-4.564235472668039
aF-4.99539824422924
aF3.621541518563866
aF5.3177553132664315
aF5.984213772078192
aF3.258816165187344
aF4.800823313887505
aF6.362749774783134
aF5.318897673864312
aF5.557766197893201
aF4.2422977140908085
aF5.856034757080745
aF7.017768139391595
aF4.655576386898234
aF5.588175772628626
aF3.7085136481013414
aF5.672847351559658
aF4.302922314494765
aF5.01372334257531
aF4.8583841788614475
aF6.70648266800384
aF6.153299899406169
aF4.794994230094567
aF5.473605909111557
aF3.9103647950437894
aF4.955728772489709
aF4.3381101148877566
aF4.755308102503592
aF3.9751100454063666
aF4.7987284779293
aF4.984645051211307
aF6.284005332281179
aF-2.838620054559334
aF6.011385262224262
aF4.303029843527659
aF5.375823688687493
aF5.116692863199894
aF4.527436899353017
aF6.297168138021335
aF3.9508204922825088
aF5.73844225265884
aF-4.621775119015136
aF-3.118685233944611
aF6.208937188114882
aF4.245553926779121
aF4.453874644734568
aF5.341100511513861
aF5.346339215514062
aF3.9577192887669432
aF-4.59992570057298
aF-5.054218221659603
aF-4.119297240356469
aF-6.138773874449825
aF-4.21833155032686
aF-3.849027856466568
aF-4.644029861020632
aF-4.605734370369165
aF-4.640222321162608
aF-4.7748796178516
aF-4.676724348118129
aF-2.597970663231499
aF-5.9844935640173675
aF-5.773228035475242
aF-3.429846088517854
aF-3.8520936923660427
aF-5.984856976492202
aF-5.046214130833273
aF-4.092212791970331
aF-4.693236752047789
aF-4.3095757116718865
aF-5.773689619403152
aF-4.818345701895046
aF-3.5753838535982574
aF-3.412332778555802
aF-5.184910007912466
aF-7.588432829137467
aF-3.2306907859817446
aF-2.7958158330992426
aF-4.9604480933316655
aF-4.7464624274749605
aF-4.747102451628294
aF-5.540184030417002
aF-5.467870253028964
aF-2.7162897814101097
aF-6.4219976183762855
aF-4.970591748622024
aF-6.39138812812765
aF-7.023173913070752
aF-3.319297181964681
aF-6.551916184345098
aF-4.536346959293042
aF-3.864854796080886
aF-4.50974798844741
aF-5.6154353589569315
aF-6.457416508043397
aF-4.241327278330774
aF-4.860322276440626
aF-5.020289902856406
aF-4.917882916095692
aF-6.298659318832731
aF-4.522326030242803
aF-5.434237244861285
aF-6.796993241959983
aF-6.911208233902575
aF-4.995674554359205
aF-5.806444856600271
aF-6.312494400081336
aF-3.0650878380521984
aF-6.342376227529734
aF-5.8515020422173025
aF-4.130113440466161
aF-5.435935303820761
aF-4.050755245908906
aF-4.738694019400937
aF-4.230306981358522
aF-5.633908874500436
aF-4.031962103540632
aF-4.5418747056560855
aF-7.261992653955168
aF-3.0993992735578035
aF-5.029473940053877
aF-6.914536336795718
aF-4.947877964950545
aF-6.103276512940536
aF-6.026277375329638
aF-6.008895156153453
aF-5.7825371607795
aF-5.870510759232005
aF-3.8025231340728247
aF-5.089180971084608
aF-3.7362760356990568
aF-6.645897332754297
aF6.689902544028522
aF6.491311864207139
aF4.37576463756955
aF5.7092250478233115
aF-4.598078741033155
aF-3.4323182765422606
aF-3.559814069962611
aF5.21671056412434
aF3.00604015985771
aF4.086888229677593
aF4.83294682674422
aF-5.181887521358359
aF-4.010506600221249
aF-4.423283671888948
aF-4.991697104942897
aF-4.618719044903955
aF-5.771195199774289
aF-4.592128384047023
aF-5.401582838269426
aF-2.928745934141807
aF-6.559021181763023
aF2.6578615091541073
aF6.94285433403023
aF5.124183291431948
aF-4.6462824305877195
aF-4.495215097359435
aF-6.608868646385499
aF-4.540557254236359
aF-5.823118822788425
aF-5.544522662976726
aF-5.581051940343201
aF-4.537007741773966
aF-5.328378479904588
aF-1.8991669962443938
aF-6.007563858326094
aF-3.3656259144865075
aF-7.585774280036774
aF-5.595558702198264
aF-6.742760093645243
aF-3.8825582197551247
aF-4.975091943059618
aF-5.058001072704272
aF-6.092414864526982
aF-5.642463584651736
aF7.200366982253585
aF6.642147307546519
aF5.049078319209116
aF4.033131251662816
aF4.687450554631454
aF6.163890554039015
aF-5.504385920149464
aF-4.2475966650923915
aF-4.58383775564213
aF-4.768825563110802
aF-4.150801191258931
aF-5.628111635897667
aF-4.440792146582659
aF-5.28646784981903
aF-5.100401496118937
aF-4.560192862902207
aF-3.6266498109094965
aF-3.23349512081486
aF-6.053823524042143
aF-4.12107356046121
aF-3.387464868594434
aF-4.877612369051448
aF-5.35263525184387
aF-5.528259458529651
aF-5.478515948838062
aF-4.766581203759291
aF-4.6847249448442385
aF-4.738759336764608
aF-3.9016773347130944
aF-4.912029373430596
aF-4.909440177222381
aF-5.476527493663666
aF-6.053651711438297
aF-5.114526480092442
aF-3.8607037927224495
aF-6.241728655106704
aF-4.325087812508853
aF-5.674680027680094
aF-4.8354470104702365
aF-4.296199929877869
aF-5.538945847708936
aF-5.084959523028044
aF-5.428766867469181
aF-5.045214219335635
aF-4.8043010287193235
aF-3.5550139331631576
aF-6.064421206967207
aF-4.191587346107983
aF-5.598437019670302
a(lp1
I23
aI178
aI191
aI196
aI214
aI257
aI278
aI308
aI309
aI317
aI319
aI325
aI408
aI412
aI415
aI419
aI429
aI432
aI452
aI458
atp2
.((lp0
F5.407439320860687
aF5.096310342273859
aF5.635644212207151
aF4.243842790951965
aF5.841155199256814
aF4.573323551857223
aF4.970130161174379
aF5.130507325692225
aF4.158620886089291
aF5.523285927501908
aF5.953265639612899
aF4.6078949256033015
aF5.546758812609447
aF3.219139072037033
aF5.41396066178508
aF4.779551879189962
aF3.5053997628118627
aF3.446465719552047
aF5.06619596980564
aF2.9979652058424655
aF5.075499167091138
aF1.5461131771380354
aF8.215483111836454
aF5.155671114665528
aF4.242755977585183
aF4.004100489084595
aF4.768417290899045
aF3.8833356202467266
aF4.886513323059626
aF5.197644707552326
aF5.8697699693100445
aF5.156355664819278
aF5.346324420459087
aF6.88233357109028
aF4.194257236170159
aF5.011699855159506
aF3.910355967990526
aF5.168938475505166
aF6.778641574715513
aF-4.576456892921128
aF-4.363713662061755
aF-5.112495940017319
aF-5.0766109313650185
aF-5.611832796025315
aF-4.754760263982495
aF5.872028966245783
aF4.610666855137775
aF5.786219200488932
aF4.8489883879381575
aF4.09858714528592
aF5.216207799116495
aF5.023923398653558
aF5.129377811876036
aF5.262776969562559
aF5.222146597390696
aF6.199093997408418
aF-4.534793071843565
aF-4.953812769192311
aF5.6684603279209345
aF4.025276081000895
aF5.710593921434862
aF5.521766545250356
aF4.981475631939496
aF5.751216277107911
aF6.7072586018047256
aF4.567322976629909
aF4.052283364146179
aF3.6034807093683145
aF4.461553932202831
aF-4.58850545679812
aF-6.681049028586772
aF-3.7618995206019945
aF-4.322898547829672
aF-4.701727017008513
aF-4.940621352183978
aF-5.454963952799002
aF-4.0797671164781
aF-5.240452020478654
aF-4.919331940103798
aF-7.21496226978915
aF-6.792127730379827
aF-4.355883559289762
aF-4.6549335139738375
aF-4.232593928079865
aF-6.430786881763928
aF-5.565468113965159
aF-6.1640322918766
aF-4.275435628285655
aF-4.737856335026294
aF-5.83212622492699
aF-5.6413267348580085
aF-5.139595727386754
aF-5.780943589149041
aF5.27962003621915
aF5.6941587713991515
aF3.615488652509467
aF6.262095951934471
aF5.426715862545791
aF5.0269670159835025
aF4.636011954047134
a(lp1
I40
aI46
aI57
aI59
aI70
aI94
atp2
.