((lp0
F4.573794734189694
aF4.970766195203658
aF5.026800467144439
aF4.957972455267173
aF5.654602572882927
aF4.610027366794354
aF6.1416629893021994
aF4.743767755682397
aF4.026105825878676
aF5.633033150564037
aF5.114832231333558
aF4.830105471364527
aF6.686123304393474
aF4.98005607882007
aF4.930150239890922
aF5.16844128032258
aF5.315393267593107
aF3.802222620217677
aF6.549843164722265
aF2.9113289442231207
aF4.5353574803442775
aF5.5157861664226004
aF4.655067745248131
aF4.863173302371774
aF4.819675610088648
aF6.0334851503157925
aF5.534107964514483
aF4.217855011972171
aF4.030689165112985
aF3.705618543306035
aF6.835387687143015
aF4.175182673847006
aF3.7500275435476307
aF-6.211286482268504
aF-5.159556184842267
aF-4.291003847108207
aF-6.418694192234695
aF-4.360476775502521
aF-5.617666173651831
aF-5.810619057929458
aF-4.999994966512974
aF-5.941575225091671
aF-6.346707499478115
aF-6.584503664263323
aF-3.397879473341069
aF-5.2523512331235676
aF-5.9927266899145195
aF-4.950995316613311
aF-5.585156274361535
aF-6.330828862456707
aF-5.55807083271117
aF-4.333699159642611
aF-6.524151447879841
aF-4.695177381683634
aF-5.222161511776175
aF-4.205062298141896
aF-4.9004248577633955
aF-3.4406898271903756
aF-4.245886269160962
aF-4.72374364761829
aF5.459287257799413
aF3.194609814317685
aF5.699953182227205
aF5.843899281057812
aF4.787602856576796
aF5.116026478994447
aF4.783080424278287
aF5.995618769366907
aF4.08578947033749
aF4.953151118966568
aF5.635933761427769
aF3.9192177175412555
aF4.289822902280903
aF3.7863836706534997
aF4.897516593032341
aF6.084270434873281
aF6.455596479290548
aF5.417187118778923
aF5.465090007516909
aF3.847499032049148
aF-2.733273361008711
aF-5.917311886257466
aF-7.216663756116844
aF-5.11005920038899
aF-2.949632780431985
aF-5.358230760279033
aF-5.173657486510379
aF-6.417302215341911
aF-5.525080224718442
aF-5.601496046254232
aF-5.863778367372909
aF-4.768495732085557
aF-5.054733544742909
aF-4.004107992626772
aF-5.714037306604816
aF-3.83608232838382
aF-4.520465692302041
aF-3.614962617966025
aF-3.7754332376947906
aF-3.7925804023946217
aF-5.67734268886993
aF-3.6615663138259107
aF-5.068375027840337
aF-4.101465417484277
aF-5.416864691705834
aF-5.624606269243143
aF-5.044826845422652
aF-6.194892159406649
aF-3.9951258634350584
aF-4.390377408058724
aF-5.758596306444901
aF-4.553791199839555
aF-4.485523844338527
aF-5.042423046400344
aF-4.995748917827098
aF-5.760851821165408
aF-4.136867973116779
aF-6.274514521343425
aF-5.96848895669087
aF-3.8370446321913696
aF-5.653122250501367
aF-5.83197107402294
aF-5.537680448746366
aF-5.121298318125205
aF-6.123402984783402
aF-6.828432196147272
aF-4.173286663766291
aF-5.580387504953429
aF-5.419555744197235
aF-4.720071519638903
aF-5.606884739476948
aF-4.952019765887508
aF-3.959321773829808
aF-5.546962830730384
aF-4.98057530904537
aF-4.0751152048760595
aF-5.72666606002213
aF-5.715790932248252
aF-4.393103421962142
aF-4.0597561747890145
aF-6.551366958251342
aF-4.666394376472297
aF-4.698362389924354
aF-5.9639939166479445
aF-6.3961559074405185
aF-5.551731478646902
aF-4.813636394980347
aF6.123833604596921
aF4.238801120043645
aF5.423427743539353
aF5.39424338611917
aF4.848200177547115
aF-4.450492803698521
aF-5.2521292295280295
aF-4.736400431478908
aF-3.760552706358764
aF-4.326111449292829
aF-3.3223717110462996
aF5.030444239427205
aF6.919618337322712
aF5.547621441254531
aF3.7993367150164232
aF4.0354261631501736
aF5.6898750096541395
aF6.139332860533834
aF6.1341843599445625
aF5.277596339606506
aF5.548844781108544
aF6.554783201971963
aF5.564787005802744
aF-5.4171098929039205
aF-5.585468738217317
aF-5.295258144385174
aF-3.576742208220448
aF-4.406887966982861
aF-5.053958712897296
aF-3.9559872021102898
aF-4.147312988177158
aF-5.432862107004599
aF-6.103573023846014
aF-5.201854682326181
aF-4.964241641388445
aF-4.776259505924735
aF-6.519095981514192
aF-5.1675624711783446
aF-6.13995016574642
aF-4.764479420892591
aF-5.919123535462976
aF-4.99237256675461
aF-5.9094612095658885
aF-5.645946970341569
aF-3.6724505880649367
aF-5.005624492521651
aF-3.9887845462487705
aF-4.519003516698822
aF-5.956678708925845
aF-5.810517248121539
aF-4.7669059474288265
aF-5.812884383058217
aF-5.966317496662381
aF-4.235565913878692
aF-4.814655742346687
aF-6.421824025704666
aF-7.185965016764112
aF-6.086620217833408
aF-6.879895581820996
aF-4.130026072528572
aF-5.250747038133118
aF-4.2756124059428835
aF3.320600563731225
aF5.79223101687912
aF6.033827286695953
aF5.585962747321851
aF3.815278683794255
aF5.048546922528369
aF5.045300318526818
aF3.3118844533880782
aF-5.340332570827575
aF-5.661152049826076
aF-2.963997297713958
aF5.914007769818761
aF-4.62377382307988
aF-5.717813008813042
aF4.63470011422245
aF3.877782525779445
aF4.745005200311823
aF4.485406865628681
aF5.462447190046211
aF6.363017893912523
aF4.585727061677096
aF6.187798140196544
aF4.439862181790364
aF5.916829845707817
aF3.28209957824536
aF3.739089721213732
aF4.025237186019238
aF5.588901043628852
aF5.707930415514547
aF-2.6223734165066164
aF-3.709554250706909
aF-5.252018550551547
aF-5.64770877835404
aF-4.924675544482278
aF-5.889936776225776
aF-5.481479022690002
aF-4.626242502879966
aF-4.990156940994509
aF-3.821545824000391
aF-4.406211854258352
aF-4.417701335931533
aF-3.78824671008597
aF-7.0507122320263385
aF-6.291400163373252
aF-4.797241585491445
aF-4.8388186277716425
aF-5.389560287670276
aF-4.184279515864065
aF-4.860859265002494
aF-6.405123006774195
aF-5.398323010974638
aF-5.307142106895178
aF-6.269876449302194
aF-2.7199555728197726
aF-3.967616545224142
aF-4.32757832863008
aF-5.514962667090741
aF-4.821580714802243
aF-4.714530299264468
aF-6.488409435008205
aF-5.27279237693223
aF-6.526276824604526
aF-6.146291197211769
aF-6.018855242575922
aF-6.249527695552661
aF-4.601773203181944
aF-5.76023915738417
aF-5.023176248069952
aF-6.222249937424538
aF-3.028218291655127
aF-6.595222148066406
aF-5.597255894573078
aF-5.967535470039894
aF-6.651811987466837
aF-5.220906604744374
aF-5.8425436118185905
aF-6.711027294698071
aF-4.547257493790233
aF-5.566844265232516
aF-4.5736920941848105
aF-4.410654972734274
aF-5.221147293260129
aF-6.017630397698942
aF-2.896181060184178
aF-5.0354968403401985
aF-4.266110639402697
aF-4.899101345451705
aF-5.810265794741195
aF-4.83975027879098
aF-4.354158638151988
aF-4.496898606014001
aF-5.2609528549393625
aF-6.169529481857005
aF5.130626090756831
aF3.9340302961517697
aF5.309519388100119
aF4.79469503404297
aF6.127503705545378
aF5.7677245636556345
aF5.032501884283107
aF5.250413398692275
aF-4.881821634367318
aF-6.208875043448341
aF4.464301423971188
aF5.465230885001458
aF3.854794819009562
aF4.313301253273085
aF4.748285451312433
aF4.798895828961409
aF5.773428741739593
aF5.174522415804901
aF5.8521935297121574
aF3.9785905062197378
aF6.407770926775703
aF4.340105849165997
aF5.6986346731124655
aF4.035378745521023
aF6.080063386348812
aF5.570557196762018
aF4.410909513547933
aF5.16335281411663
aF6.193372610177426
aF5.612499145656438
aF5.5456889302230925
aF5.50649174077251
aF6.556175144752526
aF3.8842672448722277
aF6.21711299339505
aF4.876060140404353
aF5.325865594587774
aF4.46507781865123
aF4.735164881773674
aF6.641648539563705
aF4.318730996084771
aF5.283649120331842
aF5.678230185251225
aF5.517534181392443
aF5.580023168487834
aF4.682922182194881
aF5.744784769301575
aF5.51028964614248
aF3.0250514190121054
aF4.2366805384036095
aF5.536056531376527
aF-6.024291899115542
aF-7.633067140420128
aF-6.160405229447188
aF-5.840442943737845
aF-5.8401961027935
aF-5.183798960764228
aF-5.601465464943233
aF-6.869469075230142
aF-5.640959767540764
aF-3.669888628179081
aF-6.587583042988992
aF-5.5751342327366515
aF-6.079646006741584
aF-4.097003030910168
aF-4.363966412436949
aF5.024750948593431
aF4.303533853453405
aF6.916364853092031
aF4.33809714248758
aF2.7360388352900245
aF4.969289500225584
aF6.011460436628788
aF-5.873260089914023
aF-5.271353981732597
aF-3.325413827760527
aF-3.6545160242605688
aF-4.414523945755031
aF-2.6555955018894983
aF4.104432619761303
aF6.646879719543243
aF5.25326887859904
aF4.508405731424699
aF5.285333885092623
aF5.191159134805522
aF4.708569622063998
aF4.639390853231705
aF4.664898874945407
aF3.5842964197837572
aF5.748355099765258
aF-4.541232545402548
aF-5.291944162540943
aF-4.361685718088354
aF-5.759129161275098
aF-5.568547466488593
aF-5.858300468149526
aF-2.6962858566662904
aF-5.511266148709152
aF-3.9184790226088495
aF-5.559083229198836
aF-5.106091185137362
aF-4.049415362324917
aF-4.333869973134148
aF-4.96289024877939
aF-5.976781793371505
aF-5.287421658270001
aF-6.362263197580581
aF-4.028872671407423
aF-4.786894484217213
aF-4.436154440308075
aF-3.07439083862276
aF-4.395829660252982
aF-3.9302726293774866
aF-5.776006656105341
aF-4.290036206930001
aF-5.636160203484583
aF-3.8815316180957273
aF-3.6621719958276486
aF-4.776786413642823
aF-5.203776916588567
aF-6.416109828112933
aF-3.9618791731188754
aF-5.581107778478736
aF-4.045894186068853
aF-6.29358029956835
aF-7.291691042565047
aF-6.228141704513345
aF-5.021066435141881
aF-5.812867058390756
aF-5.705537174393659
aF-5.0918522900793475
aF-7.471415313523816
aF-4.7464748315792935
aF-6.323211173480263
aF-5.8974655348809675
aF-5.696255134805175
aF-5.659785615573271
aF-7.455294708949708
aF-6.024136866422902
aF-4.933295473444901
aF-5.61349835684877
aF-4.4275501240950526
aF-6.8409209150246255
aF-2.841227713752681
aF-5.060909860552473
aF-5.854784534147157
aF-4.0517456499991145
aF-3.8870120564900867
aF-5.1521583114570255
aF-5.69293589465941
aF-5.710375084519622
aF-4.6648950471007185
aF-6.162207098414516
aF5.00253850663148
aF4.9616873835118165
aF5.744402260690805
aF3.635070426515866
aF5.574927520526446
aF5.99200574790913
aF4.664232505195613
aF6.362720233436701
aF4.7897235348913725
aF4.620166246103929
aF3.826643512759562
aF3.7256784293558
aF6.467936239911583
aF6.176647162945882
aF6.192671035566583
aF4.3099590299579145
aF3.8972186702203238
aF4.60084940450725
aF5.0618069126322665
aF5.425142589946996
aF5.014710742670632
aF4.456028830803424
aF4.903737866922429
aF4.2712235968080865
aF4.021731365832778
aF6.290362751948204
aF4.813694312864375
aF4.197068929196881
aF4.902714595601606
aF5.913137145019424
aF5.298188085013188
aF5.09143083636871
aF3.968762694947423
aF4.627056608537179
aF5.282698564578937
aF2.886186887835476
aF-4.2423590057493055
aF-3.795070839470843
aF-7.92931967917243
aF-5.392426722213213
aF-4.739883669704142
aF-6.079826914676955
aF-5.51202530537251
aF-5.180153819537245
aF-5.839582427228506
a(lp1
I1
aI34
aI61
aI81
aI148
aI153
aI159
aI171
aI210
aI218
aI221
aI222
aI224
aI239
aI303
aI311
aI313
aI354
aI369
aI376
aI382
aI393
aI456
aI492
atp2
.((lp0
F-5.353473417523608
aF-3.8702852615188297
aF-5.951701488030209
aF-5.618310964361483
aF-5.159376781266191
aF-5.3685879645827805
aF-4.964503533560195
aF-4.244725129911233
aF-4.058154204046782
aF-4.519573196067765
aF-4.719150877115921
aF-4.495201996781375
aF3.535843313172151
aF-5.247453196993699
aF-6.087806310477288
aF-5.512665670435934
aF-3.4808586654509317
aF-7.594705390128485
aF-3.806865643236555
aF-6.205254488566572
aF-5.853213524610553
aF-4.608757893248622
aF-5.062853550693518
aF-5.150636760881894
aF-5.056604645776431
aF-5.15762647736232
aF-3.8103335193114094
aF-5.743443683575142
aF-4.667148028336402
aF-3.3765044865192646
aF-7.6271935619088085
aF-3.988171348065361
aF3.625401504350476
aF6.846845220583305
aF5.863346645131034
aF6.319052230190202
aF4.113899172792996
aF4.999781097040176
aF5.631481100280297
aF4.253259595946206
aF5.937285814065386
aF5.70360441249831
aF5.551537448006895
aF5.2233799256420115
aF5.857325684294773
aF5.270785656754275
aF2.560105016863886
aF5.014320106817193
aF3.1613121777322575
aF5.197115043899461
aF5.099999527887092
aF5.12694411844715
aF4.736705527834764
aF4.029393210927179
aF5.6742291257247
aF4.205626679010696
aF5.972977610069207
aF4.239280478250674
aF5.195958122827102
aF5.835765458712721
aF6.445099275509759
aF5.841233095159331
aF5.932074548827489
aF4.321998007643061
aF4.505818575421163
aF6.286805247673594
aF4.511215698660526
aF4.747438787312081
aF3.8543388428302254
aF2.6258802634151124
aF2.9614691624834637
aF3.412352159397313
aF6.766595507766258
aF5.967007491106651
aF5.757333994564646
aF5.951386688838426
aF5.29270563699768
aF4.903199753728626
aF5.805357975439291
aF4.9386456580492215
aF5.174277102068263
aF5.502351835061951
aF3.6253293210051787
aF5.3540921435589794
aF5.511261670589876
aF4.788241843264434
aF5.312810478511849
aF4.539941376758995
aF5.703077535467864
aF4.291491690414501
aF3.2495963112327564
aF4.953541355745517
aF3.6880509606658536
aF5.426994828042028
aF5.411934372325202
aF4.079267038455448
aF5.288234390412586
aF3.590097609462277
aF4.950501922360339
aF5.098174709435374
a(lp1
I13
aI14
aI33
atp2
.