((lp0
F-4.941249363852079
aF-6.065380877937235
aF-3.7551218129550197
aF4.908099809508498
aF5.80101693261702
aF-5.5078490313896955
aF-4.827797648084141
aF-3.8975175574451804
aF-5.827552683767958
aF4.693239650750109
aF4.527386435469756
aF5.768487515234447
aF6.541541045376229
aF6.188154421530584
aF4.904903593147105
aF-7.098803345311065
aF-3.279590559431849
aF-3.720250618975827
aF-6.300979071994675
aF-4.907239668538258
aF-5.910670210419863
aF-4.388327218655634
aF-4.6649844853708515
aF-4.696447493649646
aF-6.01934264232074
aF-4.655855827067441
aF-4.848333873780565
aF-4.609070681175756
aF-4.390430906124563
aF-2.43362778082144
aF-5.745434517193026
aF-5.753222208665285
aF-5.63661185548906
aF-4.545923978341991
aF-5.08850980159219
aF-3.625620189041009
aF-5.483561909043231
aF-6.736478951886079
aF-4.470627271763613
aF-4.655449570416512
aF-4.550552279265608
aF-4.883199279012882
aF-3.5314971654650122
aF-4.438277965619551
aF-4.188554619660154
aF-4.886332329679097
aF-6.823072937569016
aF-5.05437515608423
aF-4.220495405835482
aF-6.37751094143869
aF-5.995138566326944
aF-3.6835917362952877
aF-4.844919165489411
aF-4.604596774529826
aF-2.009334421711587
aF-5.3855320362978185
aF-4.80731478062672
aF-5.617277909777667
aF-5.803189361294127
aF-4.39241821741251
aF-4.492143440230125
aF-5.834938709626847
aF5.085625075886013
aF6.273155272914296
aF5.025830829132313
aF5.77571643563306
aF3.953843893443942
aF4.294854383113954
aF4.184975669177621
aF6.012080998403565
aF5.557006206025606
aF4.494282200123232
aF6.061930058950054
aF-7.354725236459373
aF-5.656884142112716
aF-5.249542508158906
aF-5.819498101145583
aF-6.120447281441232
aF-7.438376328026233
aF-6.148903039412378
aF5.818306236426559
aF4.3524462360739715
aF4.6748633225547405
aF6.024668703390121
aF5.009336754716389
aF6.852422153949513
aF4.385091962073764
aF4.173516377609087
aF6.4158647477569115
aF7.581421834148655
aF4.937854521540542
aF3.836987452598104
aF6.391477703136594
aF5.085652797603457
aF-4.112141333854071
aF-5.07517588641819
aF-5.691465758325942
aF-5.283138392484037
aF-5.30234032170651
aF-3.3850887768599085
aF-2.6923194840917986
aF-4.809146878967045
aF-4.419671257191211
aF-5.35843434291578
aF-4.487818029222829
aF-4.631666166437971
aF-5.784729065523625
aF-5.139018599023818
aF4.6060121638088685
aF5.125768570149864
aF5.92156714505306
aF4.570925720364553
aF4.396108008375811
aF4.990013647159845
aF6.292847401410265
aF4.219533748334203
aF4.728555966550527
aF4.997488832791367
aF3.920085906813158
aF5.882338670575739
aF2.9586961643386887
aF5.003051379036439
aF4.310012564933129
aF5.443553483887196
aF5.357284065184728
aF7.077688869493963
aF5.169587375288093
aF4.504581144306821
aF-2.924197647035377
aF-4.505246679376114
aF-6.691383236274188
aF-4.552989914538143
aF-6.315029956249042
aF-4.432220172468049
aF-5.287614058092052
aF-5.518698616079309
aF-4.630928300795485
aF-3.932355812802206
aF-4.437730860389546
aF-6.144058947277964
aF-5.529209623305976
aF-5.0397401108005155
aF-3.12343688155858
aF-5.8488440347939425
aF-4.608607749870242
aF-5.1795063230458895
aF-6.443206053639799
aF-4.39469990348165
aF-5.839834055055686
aF-5.131354614932865
aF-4.863445936066548
aF-5.299808413501412
aF-5.855726662633907
aF-4.359960725687617
aF-5.150104624405607
aF-5.554042749531941
aF-5.714601729637459
aF5.827097826148744
aF5.143612868669743
aF3.379821146834321
aF6.960797461523086
aF-2.0959129725136014
aF-3.6896263331105756
aF-3.618652747904042
aF-5.66134284524155
aF-3.6252688463218994
aF-6.019475791505818
aF-4.07459136567546
aF-5.265674110600295
aF-4.692623136776316
aF-3.9238670122200947
aF-5.883076090788754
aF-3.61037434068007
aF-5.105323485565691
aF-3.4620903765628768
aF-4.26096604763416
aF-5.067177208198142
aF-3.090230263270485
aF-3.291370050014309
aF-6.074255081787573
aF-4.897352070830857
aF-6.7588385138842435
aF-5.2805312915594715
aF-4.674359938705348
aF-4.177494270520896
aF-4.941571454625407
aF-3.9150545623616266
aF-3.1025632531958065
aF-6.91817314616424
aF-5.985191056871835
aF-3.2260536568802287
aF5.64495754490378
aF5.606519021918487
aF5.898827351925666
aF4.716264433820446
aF4.289084935143253
aF4.486019455837093
aF6.28629880653105
aF-4.782036111012035
aF-3.808809617478602
aF-6.267766360833887
aF4.682504844691843
aF4.078608011092944
aF5.12274486116149
aF-3.4317406690127066
aF-5.232485845936545
aF-6.540797171632878
aF-6.024966695477471
aF-4.328148014324038
aF-6.293923356422851
aF-5.858147561606778
aF-5.330962697107586
aF-4.668231705137901
aF-4.052074691314158
aF-4.680361068863415
aF-6.35894326937041
aF-5.547154384257089
aF-4.8093554280109325
aF-3.62658023940657
aF-4.11821188445702
aF-4.901120922451436
aF-6.685290901801748
aF-4.557129130932058
aF-3.7057068869668877
aF-3.82516452577019
aF-5.311277473542113
aF-4.544268577066477
aF-5.395068487601264
aF-5.35510870623377
aF-5.201623977265946
aF-5.498644688436816
aF-3.54243722215209
aF-5.1114557251660955
aF-4.205117701820049
aF-5.558868829090963
aF-4.15695568018738
aF-4.191558987012049
aF-3.735980274120305
aF-4.182693765269647
aF-3.650697190606812
aF-5.474797025730117
aF-7.246622238711084
aF-5.102932103147765
aF-5.585001085254753
aF-4.75919887295173
aF-3.943091709021628
aF-4.0799338956963815
aF-3.991228079909379
aF-5.5700992087797285
aF-4.3928097547296225
aF-4.5686247187444655
aF-3.0877540412227003
aF-5.929785314135792
aF-5.692059660241813
aF-5.676554481173769
aF-5.437754170626216
aF-5.8480904370208915
aF-4.623128157513501
aF-6.004865908550783
aF-5.403708181188288
aF5.255540497440682
aF5.989197925781209
aF6.257431426870672
aF5.857927906288025
aF5.928469537738014
aF-4.535986168781108
aF-3.7793891606094983
aF-5.884450098503242
aF-5.059828924170642
aF-6.038921871902332
aF-5.349568314741311
aF-5.031442270938484
aF-3.1426932419836495
aF-4.796709095791102
aF-4.940449661163421
aF-4.951999075710818
aF-5.474677197999718
aF-4.092908552018406
aF-7.152181871720822
aF-4.691223966359179
aF6.298782889981184
aF4.70274933974757
aF-5.346194850001649
aF-5.209153632002356
aF-5.321279741603746
aF-4.378185443882061
aF-5.059053001536378
aF-5.831106489395993
aF4.758081061155616
aF4.0414512973580115
aF4.4172897098308965
aF6.265474958356978
aF4.12811947429568
aF4.753596127646292
aF4.6002094301869985
aF2.9106021254405294
aF6.073212023408426
aF3.4385480757979296
aF5.088701221636633
aF5.083902878288297
aF5.496547484515349
aF5.355251193517804
aF4.470607050032495
aF3.588953221557704
aF4.487410471503228
aF5.332329101130089
aF3.500202756523481
aF5.029798120038742
aF7.689430956807161
aF5.474988221824094
aF5.972163400045211
aF3.9894197437564065
aF5.7774959359568046
aF5.120989616365105
aF5.927645217455425
aF4.663783815863912
aF5.779490353045346
aF5.74315105636327
aF7.015050065198313
aF5.557050417618846
aF4.846431038457607
aF4.030144434472846
aF-5.199131466833702
aF-3.670289298445028
aF-4.606148191578868
aF-4.130097947858731
aF-5.478000141447287
aF-4.535076725974191
aF-2.721244493525771
aF-5.2199211664106215
aF-4.693053219723528
aF-3.8318749058845736
aF-5.020102831533197
aF-7.8861703485309524
aF-4.913793073052416
aF-4.0066763977159425
aF-5.494379462042465
aF-4.973533363711013
aF3.552005256146551
aF3.992395847384683
aF-4.925054738054901
aF-4.980470190875562
aF-5.061560123446056
aF-6.050153425049079
aF-4.937561369930577
aF-4.449732236784087
aF-5.325183404669327
aF-5.199551561987422
aF4.050409243326298
aF5.6028779563069255
aF6.01032394632798
aF4.332576770772121
aF6.176899159825842
aF5.200499923602032
aF6.670210422591516
aF4.644163086451211
aF7.808684662934854
aF3.0213141216875656
aF4.816652121411674
aF4.525611836197517
aF4.0200918823654685
aF5.202903162869224
aF5.69546392066218
aF4.124344133037596
aF4.75636666901466
aF4.87101494804495
aF5.487881333351251
aF3.542211029270784
aF5.2636821546333294
aF5.950129944380531
aF3.9118987394335782
aF5.512182680290077
aF3.7522229372990132
aF5.780407792809178
aF4.1858952737855315
aF4.549522363172261
aF5.434869440881106
aF5.780320938095487
aF4.850410578196824
aF-4.899457561382786
aF-4.753681237309968
aF-7.68031376872915
aF-4.823549215197799
aF-5.747195904256317
aF-4.293800887228502
aF-5.825818015069467
aF-3.464550872979289
aF-6.78757632153702
aF-5.02298675423458
aF-5.359541105948882
aF-5.068902348510886
aF-5.17223590912884
aF-3.1874899097182054
aF-5.3436778233642785
aF-5.990831244778833
aF-4.935090453404065
aF-5.939947493039387
aF-5.469600795741376
aF-4.471215425875172
aF-5.070035341793315
aF-3.8161330102109883
aF-4.561823270630326
aF-3.1490135294937853
aF-4.920311548637863
aF4.75021096104905
aF6.344892889560022
aF4.2091860277636135
aF5.907779559788801
aF4.68964058684466
aF5.040199493398889
aF1.9341057250764635
aF4.492295295357749
aF2.0359957277739706
aF5.882271771296323
aF2.949324975470544
aF4.691509772626968
aF6.4046327722042635
aF4.809901874891561
aF5.461915303900952
aF4.262689467118131
aF5.803919886187623
aF5.154832951905704
aF6.554495970394853
aF4.284465877777495
aF5.585746956645982
aF5.992344639590789
aF4.302383454558355
aF-4.811688714712297
aF-4.523264866970713
aF5.539605316935303
aF3.780395388993874
aF6.060158529416277
aF4.394813905181654
aF7.882663615799496
aF5.830158831364917
aF5.421003322239814
aF5.967162828457783
aF4.357866353314539
aF4.658088631219721
aF4.1960665967254
aF3.709290200134868
aF3.1847368080888017
aF5.748407711289757
aF5.7406028765960855
aF5.188613340514852
aF3.8970690575700155
aF6.490258768989147
aF4.429039303116403
aF4.0536819269950755
aF5.391626607210193
aF3.2819494338208
aF2.3712826592104794
aF5.680463093434375
aF4.372419134672939
aF4.187289558113915
aF4.082647673568223
aF4.650696140495796
aF4.40297992235614
aF4.023873880185904
aF6.83935640252159
aF4.10081135920518
aF6.962960700686844
aF5.203252955558618
aF4.606602291707773
aF5.065133838068312
aF5.719010355076275
aF5.352226303068947
aF3.6944303189666132
aF6.5257885192384295
aF5.688194668211143
aF5.5796089627105445
aF6.239054106379145
aF-4.340975076460612
aF-5.534122045590966
aF-5.709813260581435
aF-7.1745594583805
aF-6.285512645624959
aF6.778520964248644
aF6.222824636518041
aF5.610122970055825
aF3.949905330953248
aF5.743377599280559
aF5.325299341730188
aF5.721728690790996
aF3.2478372507116307
aF5.812572831905161
aF6.159278200289085
aF4.531290463156453
aF7.176605261723676
aF3.929748532016103
aF5.110129010970456
aF4.485499367536862
aF4.881155228107722
aF5.1519068560828645
aF3.5395838670510766
aF6.722073502796805
aF4.4487943059754445
aF5.0974822974834595
aF4.051333215718895
aF5.115795463608934
a(lp1
I4
aI6
aI10
aI16
aI63
aI74
aI81
aI95
aI109
aI129
aI158
aI162
aI192
aI199
aI202
aI205
aI261
aI266
aI281
aI283
aI289
aI323
aI339
aI341
aI349
aI380
aI405
aI428
aI430
aI473
aI478
atp2
.((lp0
F-5.002832816497704
aF-5.811186101046178
aF-5.913764490360115
aF-4.777697806205087
aF-3.7042037520832425
aF-5.782490514422884
aF-3.7030973049137152
aF-4.241340091590333
aF-5.500739041191202
aF-4.868386805020705
aF-5.717115635304156
aF-5.970867059437513
aF6.2786007840224825
aF6.005135918320255
aF5.090036834718364
aF4.765610393150294
aF4.451606580873882
aF6.298466363528258
aF5.1441969913746135
aF5.619473638240515
aF4.0649241939482685
aF4.145002044700963
aF6.040331147629286
aF6.336372455688959
aF4.5053165389189616
aF3.674390597217715
aF3.796855063391569
aF4.785288430493639
aF5.268994908590554
aF4.514047033978999
aF5.416029251670278
aF6.608076891585048
aF4.253755679219163
aF5.570983012178656
aF4.118435150294223
aF5.972484676920132
aF3.649928321236543
aF5.971137816985403
aF4.808607573150276
aF4.185497986900342
aF4.6133851556064265
aF6.640736386456662
aF-4.957128752026828
aF-5.057238242318789
aF4.3381063636802635
aF-5.052336009867886
aF-4.768385965155556
aF-5.888305577859018
aF-6.698323668980093
aF-4.837851743536373
aF-2.8802963605770744
aF-4.814251501046164
aF-4.72440042233947
aF-5.056630150684757
aF-3.9690661689886406
aF-3.2751532277866695
aF-5.14091046525366
aF-6.0003705943382135
aF-4.746917970087409
aF-4.278009472436718
aF-5.857795646947209
aF-5.73880953355074
aF-2.9982428206488527
aF-5.3164379953305305
aF-4.524621219359502
aF-6.070979707881584
aF-6.536763257024408
aF-4.352499823536902
aF-3.526600046269567
aF-4.806597522308052
aF-5.034804299492991
aF-5.8223840489997825
aF5.994249597638962
aF4.947794449614787
aF8.046869641454657
aF4.17154503359921
aF3.960138580117924
aF4.738489750838069
aF4.871048066861416
aF4.682413048575402
aF5.635069588075801
aF5.797323263159368
aF3.605287731690589
aF4.751383900020391
aF-6.496647934551366
aF-5.254154995725024
aF-6.067222653380674
aF-4.7335407478764
aF-4.104400923927333
aF-3.741443368095869
aF-5.537613716201498
aF-3.578481915297242
aF-6.2823590084116026
aF-5.548530751538704
aF-5.134033215758279
aF-4.3517188014132
aF-5.324100818016396
aF-3.9216893166858737
aF-5.95978997634292
aF-5.502969942478758
a(lp1
I13
aI43
aI45
aI46
aI73
aI85
atp2
.